(dp0
S'150394'
p1
F0.0
sS'551723'
p2
F0.0
sS'819617'
p3
F0.30952380952380953
sS'221544'
p4
F0.6923076923076923
sS'680382'
p5
F0.0
sS'172794'
p6
F0.11627906976744186
sS'304302'
p7
F0.0
sS'915821'
p8
F0.0
sS'358036'
p9
F0.0
sS'261723'
p10
F0.0
sS'182678'
p11
F0.23809523809523808
sS'185101'
p12
F0.0
sS'588243'
p13
F0.2682926829268293
sS'126875'
p14
F0.11627906976744186
sS'435557'
p15
F0.20512820512820512
sS'230739'
p16
F0.02564102564102564
sS'453258'
p17
F0.1794871794871795
sS'89174'
p18
F0.0
sS'181345'
p19
F0.11627906976744186
sS'857743'
p20
F0.024390243902439025
sS'315068'
p21
F0.3076923076923077
sS'497396'
p22
F0.10256410256410256
sS'16349'
p23
F0.0
sS'476314'
p24
F0.02564102564102564
sS'155385'
p25
F0.02564102564102564
sS'527329'
p26
F0.05128205128205128
sS'239915'
p27
F0.0
sS'92879'
p28
F0.0
sS'835360'
p29
F0.024390243902439025
sS'634373'
p30
F0.075
sS'881196'
p31
F0.04878048780487805
sS'16671'
p32
F0.0975609756097561
sS'377496'
p33
F1.3333333333333333
sS'631111'
p34
F0.0
sS'978486'
p35
F0.023809523809523808
sS'973383'
p36
F0.0
sS'53902'
p37
F0.046511627906976744
sS'796805'
p38
F0.023809523809523808
sS'973824'
p39
F0.07142857142857142
sS'119461'
p40
F0.0
sS'304786'
p41
F0.21951219512195122
sS'666641'
p42
F0.0
sS'580571'
p43
F0.0
sS'492329'
p44
F0.38461538461538464
sS'141308'
p45
F0.07317073170731707
sS'640804'
p46
F0.025
sS'410349'
p47
F0.07317073170731707
sS'88158'
p48
F0.1282051282051282
sS'956383'
p49
F0.16666666666666666
sS'93434'
p50
F0.0
sS'956384'
p51
F0.09523809523809523
sS'489164'
p52
F0.15384615384615385
sS'895941'
p53
F0.0975609756097561
sS'816383'
p54
F0.023809523809523808
sS'382355'
p55
F0.02564102564102564
sS'361539'
p56
F0.05
sS'880378'
p57
F0.024390243902439025
sS'137122'
p58
F0.023809523809523808
sS'206702'
p59
F0.15
sS'734319'
p60
F0.025
sS'51602'
p61
F0.16279069767441862
sS'124007'
p62
F0.0
sS'310127'
p63
F0.05
sS'873375'
p64
F0.0
sS'836829'
p65
F0.024390243902439025
sS'448142'
p66
F0.7948717948717948
sS'64614'
p67
F0.17073170731707318
sS'63669'
p68
F0.04878048780487805
sS'161856'
p69
F0.0
sS'570581'
p70
F0.1
sS'382103'
p71
F0.0
sS'688613'
p72
F0.05
sS'861374'
p73
F0.7073170731707317
sS'922708'
p74
F0.024390243902439025
sS'373928'
p75
F0.0
sS'16708'
p76
F0.0
sS'224930'
p77
F0.05128205128205128
sS'61999'
p78
F0.47619047619047616
sS'511556'
p79
F0.0
sS'840252'
p80
F0.0
sS'105001'
p81
F0.02564102564102564
sS'430702'
p82
F0.0
sS'141238'
p83
F0.024390243902439025
sS'340619'
p84
F0.175
sS'904685'
p85
F0.7804878048780488
sS'227784'
p86
F0.1794871794871795
sS'404884'
p87
F0.24390243902439024
sS'894048'
p88
F0.21951219512195122
sS'811035'
p89
F0.0
sS'627435'
p90
F0.0
sS'358290'
p91
F0.075
sS'200232'
p92
F0.21951219512195122
sS'82538'
p93
F0.1
sS'485593'
p94
F0.0
sS'479369'
p95
F0.02564102564102564
sS'533401'
p96
F0.0
sS'500198'
p97
F0.0
sS'408288'
p98
F0.024390243902439025
sS'46260'
p99
F0.6744186046511628
sS'46266'
p100
F0.06976744186046512
sS'104712'
p101
F0.225
sS'124591'
p102
F0.13953488372093023
sS'76434'
p103
F0.17073170731707318
sS'741440'
p104
F0.075
sS'952866'
p105
F0.40476190476190477
sS'173383'
p106
F0.023255813953488372
sS'314015'
p107
F0.0
sS'919024'
p108
F0.2682926829268293
sS'878270'
p109
F0.0
sS'902681'
p110
F0.12195121951219512
sS'191046'
p111
F0.0
sS'836809'
p112
F1.7073170731707317
sS'789797'
p113
F0.0
sS'600933'
p114
F0.0
sS'648645'
p115
F0.0
sS'235566'
p116
F0.18604651162790697
sS'971585'
p117
F0.19047619047619047
sS'212822'
p118
F0.0
sS'932426'
p119
F0.30952380952380953
sS'315389'
p120
F0.1282051282051282
sS'787011'
p121
F0.16666666666666666
sS'10636'
p122
F0.0
sS'210570'
p123
F0.075
sS'647542'
p124
F0.625
sS'387877'
p125
F0.1282051282051282
sS'517242'
p126
F0.0
sS'96974'
p127
F0.0
sS'850903'
p128
F0.0975609756097561
sS'44241'
p129
F0.02564102564102564
sS'701403'
p130
F0.025
sS'49325'
p131
F0.20930232558139536
sS'204068'
p132
F0.075
sS'106132'
p133
F0.0
sS'690642'
p134
F0.05
sS'387589'
p135
F0.10256410256410256
sS'555914'
p136
F0.0
sS'890948'
p137
F0.0
sS'427691'
p138
F0.0
sS'909099'
p139
F0.07317073170731707
sS'335986'
p140
F0.024390243902439025
sS'658615'
p141
F0.575
sS'798562'
p142
F0.07142857142857142
sS'454672'
p143
F0.02564102564102564
sS'680337'
p144
F0.0
sS'237142'
p145
F0.0
sS'237141'
p146
F0.0
sS'237140'
p147
F0.0
sS'708384'
p148
F0.4
sS'844610'
p149
F0.07317073170731707
sS'12234'
p150
F0.0
sS'772529'
p151
F0.0
sS'990274'
p152
F0.23809523809523808
sS'349427'
p153
F0.025
sS'947340'
p154
F0.023809523809523808
sS'118935'
p155
F0.3076923076923077
sS'659013'
p156
F0.0
sS'826232'
p157
F0.023809523809523808
sS'552836'
p158
F0.0
sS'701245'
p159
F0.525
sS'168266'
p160
F0.09302325581395349
sS'285023'
p161
F0.0
sS'285022'
p162
F0.15
sS'895375'
p163
F0.024390243902439025
sS'314899'
p164
F0.0
sS'714079'
p165
F0.05
sS'629763'
p166
F0.1
sS'53514'
p167
F0.0
sS'810168'
p168
F0.3023255813953488
sS'190318'
p169
F0.1951219512195122
sS'416636'
p170
F0.05
sS'68892'
p171
F0.04878048780487805
sS'30417'
p172
F0.125
sS'40'
p173
F0.09302325581395349
sS'636888'
p174
F0.025
sS'256297'
p175
F0.0
sS'543494'
p176
F0.02564102564102564
sS'265735'
p177
F0.2682926829268293
sS'456972'
p178
F0.0
sS'907835'
p179
F0.17073170731707318
sS'512611'
p180
F0.05128205128205128
sS'626286'
p181
F0.0
sS'569328'
p182
F0.0
sS'91695'
p183
F0.05128205128205128
sS'812924'
p184
F0.14285714285714285
sS'313937'
p185
F0.05128205128205128
sS'641157'
p186
F0.075
sS'503006'
p187
F0.0
sS'355944'
p188
F0.0
sS'108825'
p189
F0.0
sS'64321'
p190
F0.023809523809523808
sS'582571'
p191
F0.025
sS'58454'
p192
F0.047619047619047616
sS'701665'
p193
F0.15
sS'931670'
p194
F0.0
sS'75079'
p195
F0.0
sS'305976'
p196
F0.0
sS'571893'
p197
F0.46153846153846156
sS'613889'
p198
F0.0
sS'263775'
p199
F0.0
sS'820993'
p200
F0.023809523809523808
sS'186619'
p201
F0.09523809523809523
sS'412188'
p202
F0.21951219512195122
sS'171308'
p203
F0.06976744186046512
sS'975932'
p204
F0.0
sS'142302'
p205
F0.07317073170731707
sS'624995'
p206
F0.1
sS'721395'
p207
F0.0
sS'232641'
p208
F0.02564102564102564
sS'316414'
p209
F0.0
sS'893417'
p210
F1.024390243902439
sS'175647'
p211
F0.0
sS'599901'
p212
F0.04878048780487805
sS'143772'
p213
F0.0
sS'175640'
p214
F0.023809523809523808
sS'310712'
p215
F0.025
sS'863824'
p216
F0.0
sS'863822'
p217
F0.17073170731707318
sS'171522'
p218
F0.0
sS'579698'
p219
F0.21951219512195122
sS'620470'
p220
F0.0
sS'778275'
p221
F0.023809523809523808
sS'136111'
p222
F0.0
sS'296558'
p223
F0.0
sS'194644'
p224
F0.14634146341463414
sS'645786'
p225
F0.125
sS'826684'
p226
F0.0
sS'224650'
p227
F0.0
sS'975914'
p228
F0.0
sS'109443'
p229
F0.10256410256410256
sS'700922'
p230
F0.075
sS'769166'
p231
F0.3333333333333333
sS'573737'
p232
F0.0
sS'398156'
p233
F0.0
sS'544301'
p234
F0.0
sS'103152'
p235
F0.0
sS'641531'
p236
F0.05
sS'817852'
p237
F0.023809523809523808
sS'985458'
p238
F0.023809523809523808
sS'233354'
p239
F0.0
sS'238873'
p240
F0.0
sS'981111'
p241
F0.0
sS'756470'
p242
F0.075
sS'811387'
p243
F0.0
sS'590997'
p244
F0.04878048780487805
sS'819596'
p245
F0.16666666666666666
sS'370315'
p246
F0.0
sS'146079'
p247
F0.0
sS'165966'
p248
F0.023255813953488372
sS'126260'
p249
F0.23255813953488372
sS'4261'
p250
F0.0
sS'681823'
p251
F0.125
sS'508292'
p252
F0.1282051282051282
sS'34791'
p253
F0.8205128205128205
sS'476961'
p254
F0.0
sS'322005'
p255
F0.0
sS'197204'
p256
F1.4146341463414633
sS'446080'
p257
F0.0
sS'446081'
p258
F0.0
sS'25342'
p259
F0.0
sS'620051'
p260
F0.15
sS'107258'
p261
F0.02564102564102564
sS'812491'
p262
F0.046511627906976744
sS'241755'
p263
F0.13953488372093023
sS'108224'
p264
F0.0
sS'680503'
p265
F0.075
sS'680507'
p266
F0.65
sS'804438'
p267
F0.37209302325581395
sS'963842'
p268
F0.047619047619047616
sS'622569'
p269
F0.1
sS'413071'
p270
F0.0
sS'816017'
p271
F0.0
sS'239677'
p272
F0.023255813953488372
sS'378258'
p273
F0.02564102564102564
sS'844260'
p274
F2.1951219512195124
sS'180755'
p275
F0.0
sS'466993'
p276
F0.0
sS'869740'
p277
F0.0
sS'650806'
p278
F0.0
sS'189105'
p279
F0.0
sS'800707'
p280
F0.0
sS'961437'
p281
F0.023809523809523808
sS'90058'
p282
F0.38461538461538464
sS'892050'
p283
F0.024390243902439025
sS'816460'
p284
F0.0
sS'165291'
p285
F0.0
sS'131472'
p286
F0.0
sS'606246'
p287
F0.12195121951219512
sS'57394'
p288
F0.0
sS'651722'
p289
F0.0
sS'309846'
p290
F0.0
sS'309847'
p291
F0.1
sS'947955'
p292
F0.11904761904761904
sS'214794'
p293
F0.1
sS'816263'
p294
F0.19047619047619047
sS'414451'
p295
F0.0
sS'103576'
p296
F0.225
sS'311006'
p297
F0.5
sS'533715'
p298
F0.02564102564102564
sS'253439'
p299
F0.0
sS'188299'
p300
F0.0
sS'240829'
p301
F0.0
sS'307040'
p302
F0.025
sS'110498'
p303
F0.05128205128205128
sS'933681'
p304
F0.0
sS'179925'
p305
F0.0
sS'503233'
p306
F0.10256410256410256
sS'988431'
p307
F0.0
sS'570952'
p308
F0.02564102564102564
sS'574658'
p309
F0.0
sS'595585'
p310
F0.0975609756097561
sS'35338'
p311
F0.02564102564102564
sS'214534'
p312
F0.475
sS'358751'
p313
F0.15
sS'429820'
p314
F0.05128205128205128
sS'120421'
p315
F0.05128205128205128
sS'177073'
p316
F0.40476190476190477
sS'71920'
p317
F0.0
sS'396667'
p318
F0.20512820512820512
sS'799523'
p319
F0.023809523809523808
sS'138085'
p320
F0.0
sS'880943'
p321
F0.024390243902439025
sS'340116'
p322
F0.0
sS'359117'
p323
F0.0
sS'890210'
p324
F0.0
sS'464205'
p325
F0.05128205128205128
sS'452106'
p326
F0.05128205128205128
sS'209449'
p327
F0.025
sS'698181'
p328
F0.05
sS'552607'
p329
F0.0
sS'670301'
p330
F0.125
sS'10979'
p331
F0.0
sS'311142'
p332
F0.0
sS'581923'
p333
F0.0
sS'397625'
p334
F0.0
sS'93139'
p335
F0.02564102564102564
sS'329908'
p336
F0.024390243902439025
sS'120046'
p337
F0.15384615384615385
sS'638067'
p338
F0.05
sS'498123'
p339
F0.0
sS'203248'
p340
F0.025
sS'844847'
p341
F0.0
sS'998257'
p342
F0.023809523809523808
sS'64114'
p343
F0.16666666666666666
sS'191456'
p344
F0.14634146341463414
sS'615647'
p345
F0.0
sS'850401'
p346
F0.0
sS'78394'
p347
F0.0
sS'100958'
p348
F0.0
sS'649232'
p349
F0.0
sS'469042'
p350
F0.05128205128205128
sS'883929'
p351
F0.0
sS'22495'
p352
F0.0
sS'98585'
p353
F0.05
sS'270617'
p354
F0.0
sS'193789'
p355
F0.12195121951219512
sS'578969'
p356
F0.0
sS'860170'
p357
F0.04878048780487805
sS'85332'
p358
F0.1282051282051282
sS'231073'
p359
F0.05128205128205128
sS'325415'
p360
F0.0
sS'908205'
p361
F0.07317073170731707
sS'993158'
p362
F0.09523809523809523
sS'581161'
p363
F0.025
sS'833608'
p364
F0.024390243902439025
sS'398065'
p365
F0.0
sS'192091'
p366
F0.21951219512195122
sS'389210'
p367
F0.0
sS'192093'
p368
F0.2926829268292683
sS'556703'
p369
F0.12195121951219512
sS'739512'
p370
F0.0
sS'694199'
p371
F0.0
sS'963921'
p372
F0.0
sS'900230'
p373
F0.5365853658536586
sS'367413'
p374
F0.28205128205128205
sS'391581'
p375
F0.07692307692307693
sS'535134'
p376
F0.0
sS'678475'
p377
F0.0
sS'488958'
p378
F0.0
sS'714154'
p379
F0.0
sS'401649'
p380
F0.21951219512195122
sS'212817'
p381
F0.025
sS'68765'
p382
F1.2926829268292683
sS'667781'
p383
F0.0
sS'865081'
p384
F0.43902439024390244
sS'191525'
p385
F0.926829268292683
sS'833425'
p386
F0.024390243902439025
sS'836041'
p387
F0.07317073170731707
sS'802789'
p388
F0.0
sS'993157'
p389
F0.40476190476190477
sS'748337'
p390
F0.525
sS'61839'
p391
F0.023809523809523808
sS'885609'
p392
F0.0975609756097561
sS'536756'
p393
F0.02564102564102564
sS'79370'
p394
F0.0
sS'456631'
p395
F0.0
sS'833868'
p396
F0.04878048780487805
sS'646953'
p397
F0.0
sS'821563'
p398
F0.09523809523809523
sS'517232'
p399
F0.0
sS'656628'
p400
F0.15
sS'85608'
p401
F0.10256410256410256
sS'650347'
p402
F0.275
sS'152617'
p403
F0.0
sS'162750'
p404
F0.0
sS'948618'
p405
F0.19047619047619047
sS'255391'
p406
F0.0
sS'700384'
p407
F0.0
sS'373879'
p408
F0.15384615384615385
sS'639995'
p409
F0.425
sS'467128'
p410
F0.02564102564102564
sS'190326'
p411
F0.1951219512195122
sS'329693'
p412
F0.0
sS'408348'
p413
F0.5853658536585366
sS'158708'
p414
F0.7948717948717948
sS'570550'
p415
F0.0
sS'289019'
p416
F0.0
sS'943185'
p417
F0.07142857142857142
sS'14896'
p418
F0.6097560975609756
sS'719766'
p419
F0.225
sS'752570'
p420
F0.075
sS'409746'
p421
F0.4146341463414634
sS'546143'
p422
F0.02564102564102564
sS'164404'
p423
F0.4418604651162791
sS'773823'
p424
F0.07142857142857142
sS'158606'
p425
F0.0
sS'128736'
p426
F0.0
sS'841016'
p427
F0.0975609756097561
sS'753382'
p428
F0.0
sS'484411'
p429
F0.0
sS'99188'
p430
F0.0
sS'668131'
p431
F0.025
sS'484417'
p432
F0.0
sS'666892'
p433
F0.0
sS'122805'
p434
F0.0
sS'584696'
p435
F0.0
sS'542324'
p436
F0.15384615384615385
sS'295513'
p437
F0.0
sS'830887'
p438
F0.07317073170731707
sS'137075'
p439
F0.024390243902439025
sS'291036'
p440
F0.07692307692307693
sS'597858'
p441
F0.4878048780487805
sS'432923'
p442
F0.0
sS'107703'
p443
F0.05
sS'500690'
p444
F0.8717948717948718
sS'681075'
p445
F0.05
sS'711161'
p446
F0.0
sS'690161'
p447
F0.0
sS'324528'
p448
F0.0
sS'568463'
p449
F0.0
sS'10573'
p450
F0.35714285714285715
sS'13062'
p451
F0.36585365853658536
sS'83918'
p452
F0.07692307692307693
sS'298341'
p453
F0.02564102564102564
sS'313554'
p454
F0.0
sS'524102'
p455
F0.02564102564102564
sS'701460'
p456
F0.4
sS'83267'
p457
F0.0
sS'884802'
p458
F0.024390243902439025
sS'91167'
p459
F0.38461538461538464
sS'118816'
p460
F0.0
sS'944605'
p461
F0.11904761904761904
sS'113895'
p462
F0.2564102564102564
sS'198578'
p463
F0.7560975609756098
sS'568240'
p464
F0.1
sS'534660'
p465
F0.10256410256410256
sS'534194'
p466
F0.0
sS'203808'
p467
F0.12195121951219512
sS'255711'
p468
F0.0
sS'636856'
p469
F0.175
sS'74086'
p470
F0.0
sS'518903'
p471
F0.10256410256410256
sS'432659'
p472
F0.5128205128205128
sS'198203'
p473
F0.17073170731707318
sS'709046'
p474
F0.1
sS'779400'
p475
F0.0
sS'115010'
p476
F0.23076923076923078
sS'487330'
p477
F0.0
sS'662554'
p478
F0.0
sS'481826'
p479
F0.0
sS'209845'
p480
F0.0
sS'27545'
p481
F0.0
sS'322260'
p482
F0.024390243902439025
sS'551773'
p483
F0.0
sS'222300'
p484
F0.41025641025641024
sS'562845'
p485
F0.0
sS'565312'
p486
F0.025
sS'561308'
p487
F0.5853658536585366
sS'826117'
p488
F0.047619047619047616
sS'941903'
p489
F0.11904761904761904
sS'882958'
p490
F0.024390243902439025
sS'416193'
p491
F0.3
sS'94526'
p492
F0.0
sS'379021'
p493
F1.1025641025641026
sS'670899'
p494
F0.025
sS'299747'
p495
F0.34146341463414637
sS'567448'
p496
F0.0
sS'984621'
p497
F0.0
sS'333560'
p498
F0.0
sS'83602'
p499
F0.0
sS'40776'
p500
F0.0
sS'401915'
p501
F0.0
sS'737181'
p502
F0.0
sS'211058'
p503
F0.0
sS'283260'
p504
F0.28205128205128205
sS'722781'
p505
F0.7
sS'803420'
p506
F0.09302325581395349
sS'649615'
p507
F0.0
sS'811778'
p508
F0.11627906976744186
sS'677175'
p509
F0.0
sS'934766'
p510
F0.023809523809523808
sS'49770'
p511
F0.0
sS'625012'
p512
F3.475
sS'151716'
p513
F0.4
sS'565774'
p514
F0.175
sS'403678'
p515
F0.0
sS'796510'
p516
F0.0
sS'465403'
p517
F0.0
sS'941187'
p518
F0.0
sS'39349'
p519
F0.05128205128205128
sS'77247'
p520
F0.025
sS'961762'
p521
F0.0
sS'378368'
p522
F0.0
sS'402159'
p523
F0.12195121951219512
sS'748801'
p524
F0.0
sS'789367'
p525
F0.07142857142857142
sS'875837'
p526
F0.04878048780487805
sS'290746'
p527
F0.0
sS'14474'
p528
F0.0
sS'313374'
p529
F0.0
sS'78653'
p530
F0.0
sS'233340'
p531
F0.0
sS'577018'
p532
F0.0
sS'218631'
p533
F0.0
sS'238649'
p534
F0.046511627906976744
sS'192898'
p535
F0.0
sS'375440'
p536
F0.20512820512820512
sS'109516'
p537
F0.0
sS'958234'
p538
F0.0
sS'59216'
p539
F0.0
sS'496396'
p540
F0.0
sS'496392'
p541
F0.07692307692307693
sS'263239'
p542
F0.10256410256410256
sS'430471'
p543
F0.0
sS'229986'
p544
F0.02564102564102564
sS'381156'
p545
F0.0
sS'328544'
p546
F0.12195121951219512
sS'385187'
p547
F0.05128205128205128
sS'584303'
p548
F0.0
sS'970286'
p549
F0.047619047619047616
sS'620261'
p550
F0.0
sS'486134'
p551
F0.05128205128205128
sS'98902'
p552
F0.025
sS'980524'
p553
F0.09523809523809523
sS'9982'
p554
F0.2857142857142857
sS'447655'
p555
F2.5641025641025643
sS'338488'
p556
F0.04878048780487805
sS'750835'
p557
F0.0
sS'806403'
p558
F0.046511627906976744
sS'161134'
p559
F0.0
sS'90700'
p560
F0.15384615384615385
sS'234742'
p561
F0.18604651162790697
sS'760194'
p562
F0.07692307692307693
sS'522188'
p563
F0.0
sS'380935'
p564
F0.0
sS'192302'
p565
F0.024390243902439025
sS'856566'
p566
F0.0
sS'192304'
p567
F0.2926829268292683
sS'150976'
p568
F0.11627906976744186
sS'533402'
p569
F0.0
sS'416'
p570
F0.0
sS'29605'
p571
F0.025
sS'988643'
p572
F0.0
sS'511694'
p573
F0.07692307692307693
sS'206381'
p574
F0.05
sS'599583'
p575
F0.0
sS'889611'
p576
F0.024390243902439025
sS'702115'
p577
F0.05
sS'531732'
p578
F0.10256410256410256
sS'507895'
p579
F0.02564102564102564
sS'438451'
p580
F0.02564102564102564
sS'87422'
p581
F0.3076923076923077
sS'606090'
p582
F0.0
sS'838313'
p583
F0.0
sS'72897'
p584
F0.0
sS'239028'
p585
F0.06976744186046512
sS'273636'
p586
F0.05
sS'715449'
p587
F0.025
sS'665098'
p588
F0.0
sS'309852'
p589
F0.125
sS'672352'
p590
F0.025
sS'193379'
p591
F0.0
sS'612448'
p592
F0.0975609756097561
sS'187265'
p593
F0.07142857142857142
sS'896890'
p594
F0.04878048780487805
sS'155651'
p595
F0.0
sS'776868'
p596
F0.023809523809523808
sS'542799'
p597
F0.0
sS'689703'
p598
F0.05
sS'615717'
p599
F0.024390243902439025
sS'120637'
p600
F0.02564102564102564
sS'165020'
p601
F0.023255813953488372
sS'228103'
p602
F0.07692307692307693
sS'50060'
p603
F0.023255813953488372
sS'100492'
p604
F0.15
sS'213511'
p605
F0.175
sS'407991'
p606
F0.0
sS'126490'
p607
F0.2558139534883721
sS'170597'
p608
F0.0
sS'985916'
p609
F0.0
sS'975895'
p610
F0.0
sS'213904'
p611
F0.025
sS'793098'
p612
F0.047619047619047616
sS'565526'
p613
F0.0
sS'19359'
p614
F0.36585365853658536
sS'127724'
p615
F0.0
sS'593294'
p616
F0.0
sS'68582'
p617
F0.0
sS'915483'
p618
F0.024390243902439025
sS'811367'
p619
F0.0
sS'81511'
p620
F0.025
sS'577629'
p621
F0.024390243902439025
sS'91550'
p622
F0.0
sS'640273'
p623
F0.05
sS'577624'
p624
F0.0
sS'51626'
p625
F0.023255813953488372
sS'415882'
p626
F0.12195121951219512
sS'415883'
p627
F0.0
sS'827296'
p628
F0.023809523809523808
sS'194905'
p629
F0.24390243902439024
sS'327752'
p630
F0.0
sS'986964'
p631
F0.0
sS'222716'
p632
F0.02564102564102564
sS'51629'
p633
F0.0
sS'744169'
p634
F0.0
sS'277485'
p635
F0.125
sS'24600'
p636
F0.0
sS'571140'
p637
F0.0
sS'389440'
p638
F0.07692307692307693
sS'925116'
p639
F0.0
sS'318154'
p640
F0.17073170731707318
sS'68989'
p641
F0.1951219512195122
sS'150021'
p642
F0.023809523809523808
sS'455299'
p643
F0.02564102564102564
sS'220453'
p644
F0.07692307692307693
sS'861191'
p645
F0.024390243902439025
sS'428478'
p646
F0.02564102564102564
sS'303809'
p647
F0.024390243902439025
sS'289276'
p648
F0.0
sS'952085'
p649
F0.0
sS'699585'
p650
F0.0
sS'567762'
p651
F0.0
sS'51823'
p652
F0.0
sS'861353'
p653
F0.024390243902439025
sS'276862'
p654
F0.85
sS'75872'
p655
F0.0
sS'831216'
p656
F0.0975609756097561
sS'81354'
p657
F0.225
sS'105027'
p658
F0.0
sS'245802'
p659
F0.0
sS'340636'
p660
F0.0
sS'873988'
p661
F0.6585365853658537
sS'556864'
p662
F0.024390243902439025
sS'140184'
p663
F0.34146341463414637
sS'561680'
p664
F0.0975609756097561
sS'51134'
p665
F0.20930232558139536
sS'791034'
p666
F0.07142857142857142
sS'121944'
p667
F0.07692307692307693
sS'454221'
p668
F0.0
sS'420731'
p669
F0.02564102564102564
sS'82554'
p670
F0.075
sS'349084'
p671
F0.05
sS'254389'
p672
F0.0
sS'999893'
p673
F0.0
sS'205407'
p674
F0.0
sS'639807'
p675
F0.025
sS'305181'
p676
F0.425
sS'901384'
p677
F0.024390243902439025
sS'371535'
p678
F0.375
sS'885380'
p679
F0.0
sS'244686'
p680
F0.0
sS'21637'
p681
F0.024390243902439025
sS'422247'
p682
F0.5128205128205128
sS'904985'
p683
F0.04878048780487805
sS'511164'
p684
F0.02564102564102564
sS'509733'
p685
F0.02564102564102564
sS'509737'
p686
F0.05128205128205128
sS'565787'
p687
F0.05
sS'844985'
p688
F0.12195121951219512
sS'952908'
p689
F0.047619047619047616
sS'261276'
p690
F0.0
sS'816745'
p691
F0.6666666666666666
sS'312826'
p692
F0.1794871794871795
sS'690174'
p693
F0.425
sS'140458'
p694
F0.14634146341463414
sS'42498'
p695
F0.0
sS'42496'
p696
F0.0
sS'604483'
p697
F0.024390243902439025
sS'515680'
p698
F0.0
sS'425958'
p699
F13.564102564102564
sS'125398'
p700
F0.023255813953488372
sS'125468'
p701
F0.0
sS'476987'
p702
F0.02564102564102564
sS'821601'
p703
F0.47619047619047616
sS'800227'
p704
F0.0
sS'657638'
p705
F0.25
sS'627463'
p706
F0.05
sS'90061'
p707
F0.5897435897435898
sS'951182'
p708
F0.0
sS'428925'
p709
F0.0
sS'309725'
p710
F0.0
sS'408372'
p711
F0.3170731707317073
sS'391110'
p712
F0.0
sS'718483'
p713
F0.8
sS'524066'
p714
F0.5897435897435898
sS'39337'
p715
F0.0
sS'599904'
p716
F0.2926829268292683
sS'731440'
p717
F0.05
sS'391449'
p718
F0.0
sS'147854'
p719
F0.025
sS'641019'
p720
F0.075
sS'709878'
p721
F0.075
sS'550293'
p722
F0.05128205128205128
sS'125610'
p723
F0.0
sS'683661'
p724
F0.1
sS'301539'
p725
F0.1951219512195122
sS'16909'
p726
F0.07317073170731707
sS'16908'
p727
F2.2439024390243905
sS'353338'
p728
F0.024390243902439025
sS'106391'
p729
F0.07692307692307693
sS'991144'
p730
F0.09523809523809523
sS'457664'
p731
F0.05128205128205128
sS'386477'
p732
F0.02564102564102564
sS'488433'
p733
F0.0
sS'278468'
p734
F0.04878048780487805
sS'778762'
p735
F0.0
sS'685840'
p736
F0.0
sS'249854'
p737
F0.0
sS'8143'
p738
F0.0
sS'718958'
p739
F0.025
sS'414948'
p740
F0.07317073170731707
sS'160181'
p741
F0.0
sS'190507'
p742
F0.14634146341463414
sS'872543'
p743
F0.024390243902439025
sS'113424'
p744
F0.0
sS'163565'
p745
F0.023255813953488372
sS'624570'
p746
F0.025
sS'517595'
p747
F0.0
sS'182134'
p748
F0.14285714285714285
sS'622581'
p749
F0.725
sS'495688'
p750
F0.0
sS'422336'
p751
F0.0
sS'324536'
p752
F0.024390243902439025
sS'920887'
p753
F0.024390243902439025
sS'312172'
p754
F0.0
sS'312173'
p755
F0.07692307692307693
sS'514808'
p756
F0.02564102564102564
sS'512270'
p757
F0.0
sS'202837'
p758
F0.0
sS'37370'
p759
F0.0
sS'427544'
p760
F9.897435897435898
sS'71198'
p761
F0.1951219512195122
sS'170868'
p762
F0.023255813953488372
sS'175242'
p763
F0.16666666666666666
sS'132920'
p764
F0.0
sS'524110'
p765
F0.0
sS'315387'
p766
F0.02564102564102564
sS'384009'
p767
F0.0
sS'113330'
p768
F0.0
sS'974094'
p769
F0.0
sS'883676'
p770
F0.024390243902439025
sS'11969'
p771
F0.023809523809523808
sS'566638'
p772
F0.05
sS'752593'
p773
F0.0
sS'587662'
p774
F0.0
sS'657960'
p775
F0.0
sS'232753'
p776
F0.2564102564102564
sS'41786'
p777
F0.0
sS'142753'
p778
F0.0
sS'752551'
p779
F0.025
sS'619048'
p780
F0.025
sS'338835'
p781
F0.04878048780487805
sS'426546'
p782
F0.1282051282051282
sS'225414'
p783
F0.9487179487179487
sS'474642'
p784
F0.23076923076923078
sS'265971'
p785
F0.0
sS'390084'
p786
F0.41025641025641024
sS'80828'
p787
F0.0
sS'619047'
p788
F0.05
sS'186638'
p789
F0.47619047619047616
sS'426784'
p790
F0.07692307692307693
sS'67163'
p791
F0.0
sS'367919'
p792
F0.0
sS'403322'
p793
F0.0
sS'670886'
p794
F1.35
sS'689250'
p795
F0.05
sS'147186'
p796
F0.0
sS'375235'
p797
F0.07692307692307693
sS'107601'
p798
F0.10256410256410256
sS'368236'
p799
F0.15384615384615385
sS'132819'
p800
F0.0
sS'719952'
p801
F0.325
sS'400984'
p802
F0.02564102564102564
sS'893430'
p803
F0.34146341463414637
sS'415149'
p804
F0.0
sS'752571'
p805
F0.0
sS'223953'
p806
F0.02564102564102564
sS'538298'
p807
F0.02564102564102564
sS'862248'
p808
F0.24390243902439024
sS'876701'
p809
F0.04878048780487805
sS'876702'
p810
F0.4146341463414634
sS'114999'
p811
F2.076923076923077
sS'758162'
p812
F0.07692307692307693
sS'15935'
p813
F0.0
sS'936874'
p814
F0.0
sS'8140'
p815
F0.047619047619047616
sS'803263'
p816
F0.0
sS'384591'
p817
F0.05128205128205128
sS'72802'
p818
F0.12195121951219512
sS'914416'
p819
F0.024390243902439025
sS'659613'
p820
F1.075
sS'92859'
p821
F0.0
sS'38280'
p822
F0.025
sS'44245'
p823
F0.0
sS'59017'
p824
F0.14285714285714285
sS'611154'
p825
F0.0
sS'132254'
p826
F0.0
sS'363317'
p827
F0.075
sS'640053'
p828
F0.0
sS'321696'
p829
F0.0
sS'290751'
p830
F0.0
sS'25896'
p831
F0.5
sS'70228'
p832
F0.07317073170731707
sS'475973'
p833
F0.05128205128205128
sS'398600'
p834
F0.0
sS'68935'
p835
F0.0
sS'263353'
p836
F0.075
sS'283415'
p837
F0.175
sS'474084'
p838
F0.0
sS'938334'
p839
F0.0
sS'845201'
p840
F0.4878048780487805
sS'659298'
p841
F0.1
sS'153694'
p842
F0.0
sS'305906'
p843
F0.075
sS'443632'
p844
F0.10256410256410256
sS'469193'
p845
F0.0
sS'125979'
p846
F0.0
sS'590534'
p847
F0.024390243902439025
sS'904561'
p848
F0.0
sS'712003'
p849
F0.05
sS'89019'
p850
F0.23076923076923078
sS'589955'
p851
F0.0975609756097561
sS'573434'
p852
F0.0
sS'375949'
p853
F0.0
sS'825465'
p854
F0.5714285714285714
sS'272394'
p855
F0.024390243902439025
sS'901935'
p856
F0.0
sS'375942'
p857
F0.05128205128205128
sS'450131'
p858
F0.20512820512820512
sS'838413'
p859
F0.0
sS'975106'
p860
F0.2619047619047619
sS'700890'
p861
F0.2
sS'82683'
p862
F0.0
sS'993002'
p863
F0.0
sS'154902'
p864
F0.0
sS'967280'
p865
F0.0
sS'963864'
p866
F0.0
sS'302981'
p867
F0.04878048780487805
sS'79607'
p868
F0.2
sS'234997'
p869
F0.0
sS'750536'
p870
F0.025
sS'966675'
p871
F0.0
sS'941242'
p872
F0.047619047619047616
sS'423891'
p873
F0.02564102564102564
sS'207717'
p874
F0.2
sS'55487'
p875
F0.023809523809523808
sS'598853'
p876
F0.04878048780487805
sS'551248'
p877
F0.0
sS'172561'
p878
F0.16279069767441862
sS'494586'
p879
F0.02564102564102564
sS'359597'
p880
F0.125
sS'905601'
p881
F0.0
sS'114517'
p882
F0.1282051282051282
sS'603168'
p883
F0.0
sS'550432'
p884
F0.0
sS'653573'
p885
F0.0
sS'174977'
p886
F0.0
sS'572150'
p887
F0.0
sS'159568'
p888
F0.0
sS'92335'
p889
F0.1282051282051282
sS'699067'
p890
F0.1
sS'4299'
p891
F0.0
sS'809555'
p892
F0.046511627906976744
sS'308066'
p893
F0.775
sS'527374'
p894
F0.0
sS'897201'
p895
F0.1951219512195122
sS'733061'
p896
F0.0
sS'880947'
p897
F0.14634146341463414
sS'409281'
p898
F0.12195121951219512
sS'540000'
p899
F0.07692307692307693
sS'155083'
p900
F0.0
sS'975211'
p901
F0.23809523809523808
sS'790889'
p902
F0.047619047619047616
sS'233277'
p903
F0.05128205128205128
sS'698401'
p904
F0.2
sS'224698'
p905
F0.9487179487179487
sS'213501'
p906
F0.3
sS'80706'
p907
F0.0
sS'170275'
p908
F0.3023255813953488
sS'342195'
p909
F0.0
sS'56403'
p910
F0.023809523809523808
sS'170276'
p911
F0.2558139534883721
sS'158283'
p912
F0.0
sS'651382'
p913
F0.15
sS'800393'
p914
F0.6666666666666666
sS'752972'
p915
F0.0
sS'912580'
p916
F0.0
sS'16641'
p917
F0.926829268292683
sS'684376'
p918
F0.075
sS'74464'
p919
F0.2619047619047619
sS'72270'
p920
F0.0
sS'765006'
p921
F0.023809523809523808
sS'185022'
p922
F0.0
sS'978749'
p923
F0.047619047619047616
sS'145160'
p924
F0.0
sS'680385'
p925
F0.0
sS'965227'
p926
F0.14285714285714285
sS'630933'
p927
F0.05
sS'359174'
p928
F0.05
sS'400343'
p929
F0.0
sS'359176'
p930
F0.1
sS'679930'
p931
F0.0
sS'773242'
p932
F0.023809523809523808
sS'679932'
p933
F0.0
sS'880832'
p934
F0.0
sS'901750'
p935
F0.024390243902439025
sS'638044'
p936
F0.05
sS'889711'
p937
F0.07317073170731707
sS'140538'
p938
F0.0
sS'511028'
p939
F0.0
sS'65849'
p940
F0.0
sS'79309'
p941
F0.0
sS'959752'
p942
F0.0
sS'56444'
p943
F0.09523809523809523
sS'925902'
p944
F0.024390243902439025
sS'56440'
p945
F0.0
sS'593372'
p946
F0.5853658536585366
sS'559692'
p947
F0.4146341463414634
sS'975927'
p948
F0.023809523809523808
sS'65330'
p949
F0.047619047619047616
sS'686155'
p950
F0.15
sS'975928'
p951
F0.0
sS'305357'
p952
F0.024390243902439025
sS'69325'
p953
F0.5476190476190477
sS'65338'
p954
F0.12195121951219512
sS'946604'
p955
F0.3333333333333333
sS'617097'
p956
F0.0
sS'383630'
p957
F0.0
sS'597233'
p958
F0.1951219512195122
sS'227'
p959
F0.023255813953488372
sS'484652'
p960
F0.07692307692307693
sS'214353'
p961
F0.0
sS'572578'
p962
F0.0
sS'945468'
p963
F0.2619047619047619
sS'198478'
p964
F0.3902439024390244
sS'227242'
p965
F0.0
sS'173612'
p966
F0.06976744186046512
sS'359570'
p967
F0.35
sS'693150'
p968
F0.15
sS'307489'
p969
F0.125
sS'182421'
p970
F0.0
sS'314349'
p971
F0.10256410256410256
sS'420782'
p972
F0.1794871794871795
sS'57641'
p973
F0.0
sS'619803'
p974
F0.125
sS'83727'
p975
F0.025
sS'923738'
p976
F0.0
sS'802077'
p977
F0.0
sS'855706'
p978
F0.0
sS'140193'
p979
F0.5121951219512195
sS'757247'
p980
F0.0
sS'965256'
p981
F0.0
sS'64003'
p982
F0.023809523809523808
sS'656443'
p983
F0.0
sS'141861'
p984
F0.0
sS'391059'
p985
F0.10256410256410256
sS'329215'
p986
F0.0
sS'33191'
p987
F0.07692307692307693
sS'500125'
p988
F0.10256410256410256
sS'156209'
p989
F0.02564102564102564
sS'151664'
p990
F0.05
sS'414727'
p991
F0.0
sS'70437'
p992
F0.17073170731707318
sS'493887'
p993
F0.0
sS'845479'
p994
F0.0
sS'345546'
p995
F0.0
sS'571711'
p996
F0.0
sS'402620'
p997
F0.0
sS'420873'
p998
F0.0
sS'856925'
p999
F0.024390243902439025
sS'921950'
p1000
F0.14634146341463414
sS'894168'
p1001
F0.04878048780487805
sS'312831'
p1002
F0.6666666666666666
sS'56065'
p1003
F0.023809523809523808
sS'42312'
p1004
F0.0
sS'64481'
p1005
F0.0
sS'78409'
p1006
F0.0
sS'220469'
p1007
F0.20512820512820512
sS'10178'
p1008
F0.0
sS'478538'
p1009
F0.0
sS'668848'
p1010
F0.0
sS'427158'
p1011
F0.02564102564102564
sS'994948'
p1012
F0.0
sS'317243'
p1013
F0.0
sS'265561'
p1014
F0.5853658536585366
sS'91613'
p1015
F0.1794871794871795
sS'158764'
p1016
F0.15384615384615385
sS'672673'
p1017
F0.025
sS'690615'
p1018
F0.075
sS'467103'
p1019
F0.0
sS'75241'
p1020
F0.125
sS'249844'
p1021
F0.0
sS'162683'
p1022
F0.0
sS'582226'
p1023
F0.0
sS'198174'
p1024
F0.024390243902439025
sS'16916'
p1025
F0.12195121951219512
sS'885480'
p1026
F0.0
sS'522872'
p1027
F0.0
sS'714171'
p1028
F0.0
sS'134558'
p1029
F0.047619047619047616
sS'658938'
p1030
F0.0
sS'646848'
p1031
F0.1
sS'912995'
p1032
F0.0975609756097561
sS'290901'
p1033
F0.0
sS'102562'
p1034
F0.0
sS'627216'
p1035
F0.15
sS'451616'
p1036
F0.07692307692307693
sS'99746'
p1037
F1.05
sS'102347'
p1038
F0.025
sS'809350'
p1039
F0.3953488372093023
sS'701277'
p1040
F0.275
sS'11820'
p1041
F0.0
sS'444039'
p1042
F0.0
sS'817250'
p1043
F0.0
sS'695841'
p1044
F0.0
sS'14074'
p1045
F0.047619047619047616
sS'274733'
p1046
F0.3
sS'578057'
p1047
F0.0
sS'506765'
p1048
F0.0
sS'302760'
p1049
F0.3902439024390244
sS'534647'
p1050
F0.07692307692307693
sS'62419'
p1051
F0.023809523809523808
sS'411658'
p1052
F0.7073170731707317
sS'549689'
p1053
F0.0
sS'71181'
p1054
F0.0
sS'69014'
p1055
F0.17073170731707318
sS'509532'
p1056
F0.23076923076923078
sS'126663'
p1057
F0.0
sS'596475'
p1058
F0.0
sS'530179'
p1059
F0.0
sS'11910'
p1060
F0.0
sS'84718'
p1061
F0.0
sS'133337'
p1062
F0.0
sS'518674'
p1063
F0.20512820512820512
sS'108905'
p1064
F0.0
sS'621731'
p1065
F0.3
sS'484324'
p1066
F0.717948717948718
sS'446852'
p1067
F0.02564102564102564
sS'681338'
p1068
F0.125
sS'291965'
p1069
F0.41025641025641024
sS'93181'
p1070
F0.02564102564102564
sS'291966'
p1071
F1.1538461538461537
sS'60446'
p1072
F0.023809523809523808
sS'175298'
p1073
F0.0
sS'759552'
p1074
F0.0
sS'193098'
p1075
F0.6829268292682927
sS'976638'
p1076
F0.07142857142857142
sS'447701'
p1077
F0.1282051282051282
sS'757466'
p1078
F0.025
sS'316598'
p1079
F0.02564102564102564
sS'191827'
p1080
F0.4878048780487805
sS'695675'
p1081
F0.0
sS'5468'
p1082
F0.046511627906976744
sS'564175'
p1083
F0.3
sS'463597'
p1084
F0.0
sS'208965'
p1085
F0.075
sS'403335'
p1086
F0.0
sS'67173'
p1087
F0.5853658536585366
sS'223841'
p1088
F0.0
sS'301739'
p1089
F0.36585365853658536
sS'805530'
p1090
F0.046511627906976744
sS'950137'
p1091
F0.0
sS'303569'
p1092
F0.12195121951219512
sS'681330'
p1093
F0.35
sS'168235'
p1094
F0.046511627906976744
sS'168236'
p1095
F0.023255813953488372
sS'450123'
p1096
F0.07692307692307693
sS'195102'
p1097
F0.4634146341463415
sS'415175'
p1098
F0.0
sS'232691'
p1099
F1.0256410256410255
sS'232693'
p1100
F0.20512820512820512
sS'727039'
p1101
F0.0
sS'945152'
p1102
F0.35714285714285715
sS'42684'
p1103
F0.0
sS'178802'
p1104
F0.09523809523809523
sS'583204'
p1105
F0.0
sS'202068'
p1106
F0.0
sS'242689'
p1107
F0.0
sS'565190'
p1108
F0.05
sS'400520'
p1109
F0.05128205128205128
sS'569428'
p1110
F0.0
sS'967984'
p1111
F0.0
sS'272018'
p1112
F0.024390243902439025
sS'291368'
p1113
F0.15
sS'562527'
p1114
F0.0
sS'95353'
p1115
F0.38461538461538464
sS'678391'
p1116
F0.1
sS'598362'
p1117
F0.0
sS'212173'
p1118
F0.075
sS'207654'
p1119
F0.0
sS'629053'
p1120
F0.05
sS'222210'
p1121
F0.5384615384615384
sS'462170'
p1122
F0.0
sS'194472'
p1123
F0.0
sS'461906'
p1124
F0.0
sS'59975'
p1125
F0.35714285714285715
sS'157356'
p1126
F0.28205128205128205
sS'315804'
p1127
F0.10256410256410256
sS'84888'
p1128
F0.05128205128205128
sS'529340'
p1129
F0.0
sS'238666'
p1130
F0.023255813953488372
sS'223588'
p1131
F0.0
sS'429872'
p1132
F0.0
sS'636956'
p1133
F0.05
sS'78944'
p1134
F0.1
sS'427153'
p1135
F0.10256410256410256
sS'319114'
p1136
F0.0
sS'47318'
p1137
F0.023255813953488372
sS'78943'
p1138
F0.45
sS'646461'
p1139
F0.2
sS'758609'
p1140
F0.0
sS'103295'
p1141
F0.0
sS'692433'
p1142
F0.025
sS'92834'
p1143
F0.0
sS'206631'
p1144
F0.25
sS'698974'
p1145
F0.075
sS'698977'
p1146
F0.075
sS'797480'
p1147
F0.0
sS'954635'
p1148
F0.0
sS'893479'
p1149
F0.0
sS'161152'
p1150
F0.0
sS'151172'
p1151
F0.0
sS'231582'
p1152
F0.02564102564102564
sS'812888'
p1153
F0.2857142857142857
sS'38147'
p1154
F0.0
sS'891789'
p1155
F0.12195121951219512
sS'525143'
p1156
F0.0
sS'226537'
p1157
F0.05128205128205128
sS'469050'
p1158
F0.02564102564102564
sS'302286'
p1159
F0.24390243902439024
sS'751582'
p1160
F0.0
sS'655586'
p1161
F0.05
sS'207726'
p1162
F0.3
sS'938610'
p1163
F0.0
sS'641488'
p1164
F0.0
sS'78814'
p1165
F0.075
sS'823035'
p1166
F0.09523809523809523
sS'127831'
p1167
F0.023255813953488372
sS'130427'
p1168
F0.047619047619047616
sS'495792'
p1169
F0.0
sS'769647'
p1170
F0.023809523809523808
sS'361371'
p1171
F0.0
sS'50998'
p1172
F0.0
sS'811243'
p1173
F0.27906976744186046
sS'475465'
p1174
F0.1282051282051282
sS'110680'
p1175
F0.8974358974358975
sS'217432'
p1176
F0.0
sS'475461'
p1177
F0.0
sS'848500'
p1178
F0.0
sS'197328'
p1179
F0.2682926829268293
sS'665638'
p1180
F0.025
sS'552759'
p1181
F0.0
sS'100127'
p1182
F0.0
sS'907226'
p1183
F0.0
sS'671500'
p1184
F0.0
sS'82407'
p1185
F0.1
sS'360753'
p1186
F0.0
sS'381771'
p1187
F0.02564102564102564
sS'857704'
p1188
F0.0
sS'240814'
p1189
F0.37209302325581395
sS'542600'
p1190
F0.0
sS'712788'
p1191
F0.0
sS'177468'
p1192
F0.07142857142857142
sS'180018'
p1193
F0.047619047619047616
sS'793648'
p1194
F0.0
sS'155077'
p1195
F0.23076923076923078
sS'180012'
p1196
F0.11904761904761904
sS'177463'
p1197
F0.023255813953488372
sS'67625'
p1198
F0.07142857142857142
sS'240785'
p1199
F0.0
sS'286878'
p1200
F0.0
sS'381222'
p1201
F0.15384615384615385
sS'372238'
p1202
F1.4102564102564104
sS'842956'
p1203
F1.5365853658536586
sS'304748'
p1204
F0.4
sS'185037'
p1205
F0.0
sS'545861'
p1206
F0.0
sS'92330'
p1207
F0.02564102564102564
sS'497803'
p1208
F0.7948717948717948
sS'124975'
p1209
F0.023255813953488372
sS'425940'
p1210
F0.05128205128205128
sS'261671'
p1211
F0.0
sS'69512'
p1212
F0.0975609756097561
sS'263812'
p1213
F0.0
sS'9992'
p1214
F0.023809523809523808
sS'511017'
p1215
F0.0
sS'910391'
p1216
F0.024390243902439025
sS'97115'
p1217
F0.0
sS'148049'
p1218
F0.1
sS'553567'
p1219
F0.0
sS'154411'
p1220
F0.05128205128205128
sS'107918'
p1221
F0.0
sS'406062'
p1222
F0.0
sS'559067'
p1223
F0.04878048780487805
sS'486461'
p1224
F0.1794871794871795
sS'510274'
p1225
F0.02564102564102564
sS'46448'
p1226
F0.046511627906976744
sS'925136'
p1227
F0.14634146341463414
sS'956368'
p1228
F0.14285714285714285
sS'592702'
p1229
F0.0
sS'493503'
p1230
F0.0
sS'57787'
p1231
F0.047619047619047616
sS'222569'
p1232
F0.0
sS'686144'
p1233
F0.175
sS'985808'
p1234
F0.30952380952380953
sS'476106'
p1235
F0.0
sS'345581'
p1236
F0.0
sS'183947'
p1237
F0.023809523809523808
sS'66895'
p1238
F0.0
sS'665201'
p1239
F0.0
sS'915599'
p1240
F0.04878048780487805
sS'536122'
p1241
F0.10256410256410256
sS'639558'
p1242
F0.025
sS'942753'
p1243
F0.023809523809523808
sS'536126'
p1244
F0.0
sS'121961'
p1245
F0.0
sS'821353'
p1246
F0.0
sS'139447'
p1247
F0.024390243902439025
sS'46044'
p1248
F0.0
sS'894189'
p1249
F0.4878048780487805
sS'220279'
p1250
F2.128205128205128
sS'368962'
p1251
F0.20512820512820512
sS'991213'
p1252
F0.047619047619047616
sS'181615'
p1253
F0.0
sS'181614'
p1254
F0.0
sS'181613'
p1255
F0.0
sS'181612'
p1256
F0.0
sS'181611'
p1257
F0.0
sS'181610'
p1258
F0.0
sS'83750'
p1259
F0.0
sS'154327'
p1260
F0.0
sS'436747'
p1261
F0.10256410256410256
sS'791769'
p1262
F0.0
sS'405313'
p1263
F0.43902439024390244
sS'39965'
p1264
F0.2564102564102564
sS'21658'
p1265
F0.17073170731707318
sS'480559'
p1266
F0.05128205128205128
sS'406930'
p1267
F0.024390243902439025
sS'567240'
p1268
F2.2
sS'5068'
p1269
F0.16666666666666666
sS'796787'
p1270
F0.0
sS'195242'
p1271
F0.12195121951219512
sS'436981'
p1272
F0.358974358974359
sS'705264'
p1273
F0.025
sS'93961'
p1274
F0.02564102564102564
sS'725796'
p1275
F0.0
sS'21099'
p1276
F0.6341463414634146
sS'261097'
p1277
F0.0
sS'915287'
p1278
F0.12195121951219512
sS'310269'
p1279
F0.175
sS'357252'
p1280
F0.0
sS'236105'
p1281
F0.023255813953488372
sS'226656'
p1282
F0.1282051282051282
sS'977033'
p1283
F0.0
sS'476610'
p1284
F0.0
sS'832918'
p1285
F1.5121951219512195
sS'494986'
p1286
F0.0
sS'220472'
p1287
F0.05128205128205128
sS'454358'
p1288
F0.1794871794871795
sS'686844'
p1289
F0.325
sS'828145'
p1290
F0.0
sS'877594'
p1291
F0.0
sS'323418'
p1292
F0.0
sS'824496'
p1293
F0.0
sS'197412'
p1294
F0.5121951219512195
sS'539589'
p1295
F0.0
sS'367028'
p1296
F0.0
sS'362057'
p1297
F0.0
sS'134121'
p1298
F0.07142857142857142
sS'134125'
p1299
F0.23809523809523808
sS'694515'
p1300
F0.05
sS'134126'
p1301
F0.40476190476190477
sS'22838'
p1302
F0.21951219512195122
sS'121108'
p1303
F0.20512820512820512
sS'200587'
p1304
F0.024390243902439025
sS'878832'
p1305
F0.0
sS'357336'
p1306
F0.0
sS'737869'
p1307
F0.0
sS'717811'
p1308
F0.0
sS'222186'
p1309
F0.5897435897435898
sS'5077'
p1310
F0.047619047619047616
sS'250936'
p1311
F0.0
sS'93820'
p1312
F0.02564102564102564
sS'269108'
p1313
F0.0
sS'269109'
p1314
F0.0
sS'265179'
p1315
F0.0
sS'94682'
p1316
F0.0
sS'60449'
p1317
F0.023809523809523808
sS'723077'
p1318
F0.0
sS'557591'
p1319
F0.0
sS'102578'
p1320
F0.025
sS'499931'
p1321
F0.0
sS'2404'
p1322
F0.13953488372093023
sS'340479'
p1323
F0.0
sS'751108'
p1324
F0.0
sS'210628'
p1325
F0.11904761904761904
sS'2153'
p1326
F0.046511627906976744
sS'506959'
p1327
F0.02564102564102564
sS'427099'
p1328
F0.2564102564102564
sS'936574'
p1329
F0.0
sS'628880'
p1330
F0.175
sS'274123'
p1331
F0.0
sS'459407'
p1332
F0.0
sS'902269'
p1333
F0.0
sS'998737'
p1334
F0.023809523809523808
sS'733127'
p1335
F0.0
sS'403947'
p1336
F0.024390243902439025
sS'400563'
p1337
F0.02564102564102564
sS'162150'
p1338
F0.1282051282051282
sS'52577'
p1339
F0.0
sS'639891'
p1340
F0.1
sS'639890'
p1341
F0.1
sS'62331'
p1342
F0.0
sS'403238'
p1343
F0.0975609756097561
sS'675246'
p1344
F0.65
sS'675247'
p1345
F0.6
sS'255722'
p1346
F0.0
sS'420821'
p1347
F0.8205128205128205
sS'509521'
p1348
F0.1282051282051282
sS'164521'
p1349
F0.20930232558139536
sS'302770'
p1350
F0.1951219512195122
sS'742285'
p1351
F0.0
sS'86242'
p1352
F0.0
sS'190686'
p1353
F0.0
sS'548684'
p1354
F0.0
sS'291951'
p1355
F0.46153846153846156
sS'176955'
p1356
F0.0
sS'133472'
p1357
F0.0
sS'690995'
p1358
F0.0
sS'930237'
p1359
F0.0
sS'179257'
p1360
F0.16666666666666666
sS'76687'
p1361
F0.0
sS'655250'
p1362
F0.125
sS'805504'
p1363
F0.0
sS'932504'
p1364
F0.047619047619047616
sS'317052'
p1365
F0.02564102564102564
sS'317053'
p1366
F0.05128205128205128
sS'848998'
p1367
F0.3170731707317073
sS'217636'
p1368
F0.025
sS'271112'
p1369
F0.0
sS'225435'
p1370
F0.1282051282051282
sS'71977'
p1371
F0.0
sS'402942'
p1372
F0.0975609756097561
sS'402946'
p1373
F0.04878048780487805
sS'223976'
p1374
F0.1282051282051282
sS'322438'
p1375
F0.07317073170731707
sS'574355'
p1376
F0.0
sS'63339'
p1377
F0.09523809523809523
sS'313218'
p1378
F0.05128205128205128
sS'772388'
p1379
F0.0
sS'569189'
p1380
F0.0
sS'471375'
p1381
F0.05128205128205128
sS'9388'
p1382
F0.6904761904761905
sS'233773'
p1383
F0.0
sS'269853'
p1384
F0.21951219512195122
sS'785360'
p1385
F0.0
sS'142605'
p1386
F0.0
sS'864495'
p1387
F0.024390243902439025
sS'999986'
p1388
F0.047619047619047616
sS'410402'
p1389
F0.04878048780487805
sS'232177'
p1390
F0.2564102564102564
sS'765381'
p1391
F0.0
sS'961885'
p1392
F0.023809523809523808
sS'18185'
p1393
F0.024390243902439025
sS'640430'
p1394
F0.0
sS'275279'
p1395
F0.024390243902439025
sS'811036'
p1396
F0.023255813953488372
sS'72071'
p1397
F0.34146341463414637
sS'481943'
p1398
F0.1282051282051282
sS'971584'
p1399
F0.0
sS'301896'
p1400
F0.4146341463414634
sS'647671'
p1401
F0.075
sS'666848'
p1402
F0.0
sS'412494'
p1403
F0.04878048780487805
sS'7785'
p1404
F0.4523809523809524
sS'863538'
p1405
F0.0
sS'170109'
p1406
F0.27906976744186046
sS'944704'
p1407
F1.4285714285714286
sS'26998'
p1408
F0.0
sS'325647'
p1409
F0.0
sS'411040'
p1410
F0.0
sS'47818'
p1411
F0.0
sS'89925'
p1412
F0.02564102564102564
sS'887085'
p1413
F0.0
sS'57483'
p1414
F0.047619047619047616
sS'238832'
p1415
F0.0
sS'920690'
p1416
F0.24390243902439024
sS'955044'
p1417
F0.09523809523809523
sS'502700'
p1418
F0.0
sS'284352'
p1419
F0.5384615384615384
sS'465419'
p1420
F0.1282051282051282
sS'178912'
p1421
F0.3333333333333333
sS'631961'
p1422
F0.0
sS'758610'
p1423
F0.0
sS'912107'
p1424
F0.0
sS'620090'
p1425
F0.0
sS'82756'
p1426
F0.025
sS'300637'
p1427
F0.0
sS'625112'
p1428
F0.0
sS'940713'
p1429
F0.0
sS'663611'
p1430
F0.075
sS'468807'
p1431
F0.3333333333333333
sS'701260'
p1432
F0.4
sS'778323'
p1433
F0.6666666666666666
sS'197244'
p1434
F0.024390243902439025
sS'225342'
p1435
F0.075
sS'70076'
p1436
F0.24390243902439024
sS'728064'
p1437
F0.05
sS'14539'
p1438
F0.0
sS'475710'
p1439
F0.0
sS'221332'
p1440
F0.0
sS'50327'
p1441
F0.046511627906976744
sS'996892'
p1442
F0.0
sS'710595'
p1443
F0.025
sS'311590'
p1444
F0.0
sS'738797'
p1445
F0.0
sS'242105'
p1446
F0.046511627906976744
sS'617858'
p1447
F0.0
sS'952871'
p1448
F0.6666666666666666
sS'24291'
p1449
F0.0
sS'208905'
p1450
F0.125
sS'710370'
p1451
F0.0
sS'72671'
p1452
F0.04878048780487805
sS'991086'
p1453
F0.21428571428571427
sS'88299'
p1454
F0.075
sS'45156'
p1455
F0.0
sS'78806'
p1456
F0.25
sS'723850'
p1457
F0.075
sS'374214'
p1458
F0.0
sS'207914'
p1459
F0.05
sS'214751'
p1460
F0.0
sS'725605'
p1461
F0.25
sS'289669'
p1462
F0.0
sS'616251'
p1463
F0.0
sS'903282'
p1464
F0.0
sS'617807'
p1465
F0.14634146341463414
sS'77248'
p1466
F0.1
sS'782248'
p1467
F0.07142857142857142
sS'820205'
p1468
F0.14285714285714285
sS'486078'
p1469
F0.07692307692307693
sS'402158'
p1470
F0.0
sS'312740'
p1471
F0.0
sS'72699'
p1472
F0.024390243902439025
sS'165019'
p1473
F0.0
sS'213523'
p1474
F0.0
sS'625202'
p1475
F0.1
sS'192268'
p1476
F1.2195121951219512
sS'438356'
p1477
F0.1794871794871795
sS'97200'
p1478
F0.075
sS'830992'
p1479
F0.6585365853658537
sS'132455'
p1480
F0.0
sS'110986'
p1481
F0.0
sS'830751'
p1482
F0.4634146341463415
sS'726517'
p1483
F0.0
sS'421109'
p1484
F0.0
sS'7767'
p1485
F0.5
sS'443358'
p1486
F0.38461538461538464
sS'864413'
p1487
F0.07317073170731707
sS'382498'
p1488
F0.0
sS'747439'
p1489
F0.0
sS'733857'
p1490
F0.05
sS'770205'
p1491
F0.19047619047619047
sS'687153'
p1492
F0.0
sS'981112'
p1493
F0.047619047619047616
sS'282365'
p1494
F0.0
sS'560875'
p1495
F0.0
sS'824371'
p1496
F0.023809523809523808
sS'696254'
p1497
F0.0
sS'101667'
p1498
F0.075
sS'933669'
p1499
F0.42857142857142855
sS'671153'
p1500
F0.2
sS'844868'
p1501
F0.0
sS'535911'
p1502
F0.10256410256410256
sS'833129'
p1503
F0.3170731707317073
sS'136209'
p1504
F0.07142857142857142
sS'465304'
p1505
F0.15384615384615385
sS'409960'
p1506
F0.0
sS'27104'
p1507
F0.05
sS'562176'
p1508
F0.024390243902439025
sS'109131'
p1509
F0.07692307692307693
sS'97100'
p1510
F0.024390243902439025
sS'310403'
p1511
F0.025
sS'639094'
p1512
F0.0
sS'515231'
p1513
F0.02564102564102564
sS'98631'
p1514
F0.0
sS'92998'
p1515
F0.02564102564102564
sS'366691'
p1516
F0.0
sS'24639'
p1517
F0.2
sS'821293'
p1518
F0.11904761904761904
sS'699046'
p1519
F1.325
sS'221519'
p1520
F0.0
sS'65825'
p1521
F0.8536585365853658
sS'309394'
p1522
F0.8
sS'570460'
p1523
F0.07692307692307693
sS'975929'
p1524
F0.023809523809523808
sS'424755'
p1525
F0.20512820512820512
sS'423779'
p1526
F1.1794871794871795
sS'200351'
p1527
F0.07317073170731707
sS'468371'
p1528
F0.1282051282051282
sS'215716'
p1529
F0.125
sS'819931'
p1530
F0.11904761904761904
sS'227596'
p1531
F0.02564102564102564
sS'7244'
p1532
F0.7619047619047619
sS'762425'
p1533
F2.1538461538461537
sS'908865'
p1534
F0.0
sS'935548'
p1535
F0.0
sS'324045'
p1536
F0.1951219512195122
sS'530154'
p1537
F0.0
sS'804993'
p1538
F0.23255813953488372
sS'589148'
p1539
F0.0
sS'524428'
p1540
F0.02564102564102564
sS'565416'
p1541
F0.025
sS'382232'
p1542
F0.02564102564102564
sS'809281'
p1543
F0.09302325581395349
sS'350040'
p1544
F0.025
sS'227914'
p1545
F0.05128205128205128
sS'530157'
p1546
F0.0
sS'933064'
p1547
F0.0
sS'88278'
p1548
F0.0
sS'825156'
p1549
F0.11904761904761904
sS'501507'
p1550
F0.0
sS'402378'
p1551
F0.0
sS'354201'
p1552
F0.0
sS'733519'
p1553
F0.0
sS'925634'
p1554
F0.024390243902439025
sS'827954'
p1555
F0.0
sS'945736'
p1556
F0.21428571428571427
sS'5939'
p1557
F0.11904761904761904
sS'660850'
p1558
F0.0
sS'305717'
p1559
F0.0
sS'515164'
p1560
F0.0
sS'844788'
p1561
F0.07317073170731707
sS'305245'
p1562
F0.025
sS'405329'
p1563
F0.04878048780487805
sS'686049'
p1564
F0.075
sS'448083'
p1565
F1.1282051282051282
sS'404237'
p1566
F0.0
sS'386712'
p1567
F0.0
sS'722669'
p1568
F0.0
sS'415911'
p1569
F0.0
sS'120190'
p1570
F0.5384615384615384
sS'379814'
p1571
F0.0
sS'63657'
p1572
F2.341463414634146
sS'183954'
p1573
F0.07142857142857142
sS'423327'
p1574
F0.05128205128205128
sS'172657'
p1575
F1.0465116279069768
sS'649589'
p1576
F0.2
sS'484237'
p1577
F0.07692307692307693
sS'554322'
p1578
F0.0
sS'773951'
p1579
F0.14285714285714285
sS'940085'
p1580
F0.0
sS'853421'
p1581
F0.024390243902439025
sS'486506'
p1582
F0.02564102564102564
sS'890118'
p1583
F0.0
sS'602941'
p1584
F0.12195121951219512
sS'857038'
p1585
F0.17073170731707318
sS'522922'
p1586
F0.0
sS'485636'
p1587
F0.02564102564102564
sS'101407'
p1588
F0.0
sS'329165'
p1589
F0.0
sS'619988'
p1590
F0.1
sS'638843'
p1591
F0.075
sS'251184'
p1592
F0.0
sS'855941'
p1593
F0.024390243902439025
sS'265545'
p1594
F0.14634146341463414
sS'76889'
p1595
F0.05
sS'572760'
p1596
F0.05128205128205128
sS'498523'
p1597
F0.3333333333333333
sS'49198'
p1598
F0.023255813953488372
sS'399376'
p1599
F0.05128205128205128
sS'496389'
p1600
F0.0
sS'38808'
p1601
F0.0
sS'943701'
p1602
F0.23809523809523808
sS'118968'
p1603
F0.07692307692307693
sS'128081'
p1604
F0.0
sS'77919'
p1605
F0.0
sS'693151'
p1606
F0.1
sS'358447'
p1607
F0.0
sS'301546'
p1608
F5.341463414634147
sS'91946'
p1609
F0.0
sS'971950'
p1610
F0.8095238095238095
sS'479824'
p1611
F0.0
sS'824399'
p1612
F0.16666666666666666
sS'836295'
p1613
F0.12195121951219512
sS'990330'
p1614
F0.11904761904761904
sS'646861'
p1615
F0.025
sS'105416'
p1616
F0.0
sS'274714'
p1617
F1.0
sS'112902'
p1618
F0.02564102564102564
sS'285294'
p1619
F0.0
sS'168141'
p1620
F0.0
sS'216612'
p1621
F0.0
sS'8017'
p1622
F0.023809523809523808
sS'818320'
p1623
F0.0
sS'765710'
p1624
F0.06976744186046512
sS'818325'
p1625
F0.07142857142857142
sS'268645'
p1626
F0.17073170731707318
sS'569652'
p1627
F0.0
sS'765711'
p1628
F0.0
sS'8382'
p1629
F0.0
sS'455724'
p1630
F0.0
sS'295247'
p1631
F0.0
sS'172084'
p1632
F0.046511627906976744
sS'22995'
p1633
F0.0
sS'169818'
p1634
F0.0
sS'203593'
p1635
F0.0
sS'675250'
p1636
F0.125
sS'491136'
p1637
F0.0
sS'328381'
p1638
F0.0
sS'302702'
p1639
F0.024390243902439025
sS'945735'
p1640
F0.047619047619047616
sS'73303'
p1641
F0.0
sS'661518'
p1642
F0.025
sS'445343'
p1643
F0.0
sS'938571'
p1644
F0.023809523809523808
sS'641112'
p1645
F0.425
sS'823878'
p1646
F0.0
sS'564373'
p1647
F0.225
sS'426917'
p1648
F0.07692307692307693
sS'184904'
p1649
F0.023809523809523808
sS'176725'
p1650
F0.19047619047619047
sS'56535'
p1651
F0.07142857142857142
sS'211670'
p1652
F0.024390243902439025
sS'75699'
p1653
F0.0
sS'196594'
p1654
F0.024390243902439025
sS'694494'
p1655
F0.0
sS'33379'
p1656
F0.0
sS'14948'
p1657
F0.0
sS'447275'
p1658
F0.0
sS'805045'
p1659
F0.0
sS'841308'
p1660
F0.5609756097560976
sS'113874'
p1661
F0.0
sS'324674'
p1662
F0.0
sS'203207'
p1663
F0.14634146341463414
sS'20029'
p1664
F0.0
sS'157202'
p1665
F0.0
sS'86207'
p1666
F0.0
sS'734648'
p1667
F0.025
sS'403319'
p1668
F0.0
sS'9390'
p1669
F0.40476190476190477
sS'478286'
p1670
F0.0
sS'91567'
p1671
F0.0
sS'918651'
p1672
F0.024390243902439025
sS'604288'
p1673
F0.04878048780487805
sS'49848'
p1674
F0.046511627906976744
sS'347294'
p1675
F0.8
sS'728908'
p1676
F0.0
sS'728909'
p1677
F0.025
sS'13137'
p1678
F0.0
sS'986358'
p1679
F0.023809523809523808
sS'567644'
p1680
F0.05
sS'380406'
p1681
F0.05128205128205128
sS'714055'
p1682
F0.0
sS'681820'
p1683
F0.125
sS'775023'
p1684
F0.0
sS'133008'
p1685
F0.5476190476190477
sS'209979'
p1686
F0.25
sS'479399'
p1687
F0.05128205128205128
sS'18196'
p1688
F1.024390243902439
sS'178289'
p1689
F0.023809523809523808
sS'242664'
p1690
F0.0
sS'823152'
p1691
F0.11904761904761904
sS'105984'
p1692
F0.02564102564102564
sS'437628'
p1693
F0.0
sS'850490'
p1694
F0.0
sS'364674'
p1695
F0.025
sS'656530'
p1696
F0.025
sS'335471'
p1697
F0.0
sS'194451'
p1698
F0.024390243902439025
sS'193181'
p1699
F0.2682926829268293
sS'193182'
p1700
F0.24390243902439024
sS'179805'
p1701
F0.0
sS'230323'
p1702
F0.0
sS'222239'
p1703
F0.02564102564102564
sS'797246'
p1704
F0.023809523809523808
sS'640089'
p1705
F0.0
sS'335493'
p1706
F0.024390243902439025
sS'208625'
p1707
F0.05
sS'629678'
p1708
F0.3
sS'126033'
p1709
F0.09302325581395349
sS'543404'
p1710
F0.0
sS'171281'
p1711
F3.3488372093023258
sS'971113'
p1712
F0.0
sS'157374'
p1713
F0.28205128205128205
sS'600516'
p1714
F0.0
sS'263301'
p1715
F0.05
sS'216434'
p1716
F0.025
sS'531930'
p1717
F0.05128205128205128
sS'395951'
p1718
F0.10256410256410256
sS'66681'
p1719
F0.07317073170731707
sS'249226'
p1720
F0.0
sS'125799'
p1721
F0.023255813953488372
sS'175940'
p1722
F0.42857142857142855
sS'206640'
p1723
F0.15
sS'389786'
p1724
F0.28205128205128205
sS'437242'
p1725
F0.02564102564102564
sS'963814'
p1726
F0.0
sS'324909'
p1727
F0.1951219512195122
sS'543605'
p1728
F0.07692307692307693
sS'184125'
p1729
F0.40476190476190477
sS'672924'
p1730
F0.35
sS'30399'
p1731
F0.05
sS'649670'
p1732
F0.0
sS'205852'
p1733
F0.0
sS'196572'
p1734
F0.04878048780487805
sS'398073'
p1735
F0.0
sS'681082'
p1736
F0.1
sS'279411'
p1737
F0.95
sS'574198'
p1738
F0.07692307692307693
sS'463790'
p1739
F0.10256410256410256
sS'28260'
p1740
F0.04878048780487805
sS'675791'
p1741
F0.0
sS'637729'
p1742
F0.025
sS'315910'
p1743
F0.0
sS'520407'
p1744
F0.0
sS'388716'
p1745
F0.02564102564102564
sS'330780'
p1746
F0.24390243902439024
sS'747644'
p1747
F0.225
sS'342425'
p1748
F0.25
sS'315918'
p1749
F0.10256410256410256
sS'464017'
p1750
F0.10256410256410256
sS'217144'
p1751
F0.0
sS'449690'
p1752
F0.28205128205128205
sS'78272'
p1753
F0.0
sS'970798'
p1754
F0.0
sS'979118'
p1755
F0.0
sS'953315'
p1756
F0.0
sS'525310'
p1757
F0.02564102564102564
sS'697716'
p1758
F0.025
sS'643322'
p1759
F0.0
sS'242719'
p1760
F0.0
sS'941524'
p1761
F0.0
sS'311076'
p1762
F0.05128205128205128
sS'564906'
p1763
F0.075
sS'556417'
p1764
F0.04878048780487805
sS'402783'
p1765
F0.07317073170731707
sS'727156'
p1766
F0.0
sS'197186'
p1767
F0.04878048780487805
sS'765355'
p1768
F0.16666666666666666
sS'257135'
p1769
F0.0
sS'537038'
p1770
F0.0
sS'7579'
p1771
F0.0
sS'95885'
p1772
F0.02564102564102564
sS'291434'
p1773
F0.0
sS'925133'
p1774
F0.024390243902439025
sS'192274'
p1775
F0.07317073170731707
sS'86988'
p1776
F0.0
sS'988773'
p1777
F0.11904761904761904
sS'977229'
p1778
F0.0
sS'258864'
p1779
F0.0
sS'858919'
p1780
F0.0
sS'753234'
p1781
F0.0
sS'88864'
p1782
F0.0
sS'189730'
p1783
F0.09523809523809523
sS'450020'
p1784
F0.05128205128205128
sS'73550'
p1785
F0.17073170731707318
sS'77783'
p1786
F0.025
sS'976800'
p1787
F0.0
sS'956167'
p1788
F0.07142857142857142
sS'383280'
p1789
F0.4358974358974359
sS'261658'
p1790
F0.0
sS'200900'
p1791
F0.0
sS'239378'
p1792
F0.0
sS'966806'
p1793
F0.0
sS'241729'
p1794
F0.023255813953488372
sS'200907'
p1795
F0.24390243902439024
sS'314958'
p1796
F0.05128205128205128
sS'230442'
p1797
F0.0
sS'931986'
p1798
F0.0
sS'906896'
p1799
F0.0
sS'606102'
p1800
F0.0
sS'351431'
p1801
F0.0
sS'740133'
p1802
F0.0
sS'841674'
p1803
F0.0
sS'65811'
p1804
F0.2857142857142857
sS'206898'
p1805
F0.325
sS'629849'
p1806
F0.0
sS'195610'
p1807
F0.0
sS'118744'
p1808
F0.20512820512820512
sS'931843'
p1809
F0.14285714285714285
sS'737912'
p1810
F0.05
sS'632297'
p1811
F0.125
sS'73489'
p1812
F0.024390243902439025
sS'259791'
p1813
F0.0
sS'925026'
p1814
F0.024390243902439025
sS'378401'
p1815
F0.7692307692307693
sS'403760'
p1816
F0.024390243902439025
sS'45418'
p1817
F0.2
sS'497402'
p1818
F0.07692307692307693
sS'487567'
p1819
F0.0
sS'552095'
p1820
F0.02564102564102564
sS'81538'
p1821
F0.025
sS'443039'
p1822
F0.3076923076923077
sS'222503'
p1823
F0.02564102564102564
sS'117813'
p1824
F0.10256410256410256
sS'60207'
p1825
F0.047619047619047616
sS'697443'
p1826
F0.0
sS'56326'
p1827
F0.0
sS'215706'
p1828
F0.07692307692307693
sS'315218'
p1829
F0.0
sS'616063'
p1830
F0.024390243902439025
sS'504053'
p1831
F0.0
sS'598411'
p1832
F0.36585365853658536
sS'301152'
p1833
F0.17073170731707318
sS'435017'
p1834
F0.0
sS'239208'
p1835
F0.0
sS'881554'
p1836
F0.0
sS'201525'
p1837
F0.0
sS'965380'
p1838
F0.0
sS'163842'
p1839
F0.09302325581395349
sS'878330'
p1840
F0.0975609756097561
sS'424697'
p1841
F0.02564102564102564
sS'101073'
p1842
F0.075
sS'161948'
p1843
F0.0
sS'404426'
p1844
F0.0975609756097561
sS'72069'
p1845
F0.024390243902439025
sS'90599'
p1846
F0.1282051282051282
sS'404931'
p1847
F0.0
sS'429855'
p1848
F0.1282051282051282
sS'972770'
p1849
F0.0
sS'463972'
p1850
F0.1282051282051282
sS'916354'
p1851
F0.0
sS'670214'
p1852
F0.025
sS'56257'
p1853
F0.023809523809523808
sS'735998'
p1854
F0.05
sS'757535'
p1855
F0.0
sS'328379'
p1856
F0.024390243902439025
sS'725430'
p1857
F0.05
sS'73304'
p1858
F0.024390243902439025
sS'468213'
p1859
F0.05128205128205128
sS'857678'
p1860
F0.04878048780487805
sS'781840'
p1861
F41.73809523809524
sS'342008'
p1862
F0.225
sS'49057'
p1863
F0.20930232558139536
sS'405331'
p1864
F0.024390243902439025
sS'251662'
p1865
F0.0
sS'802081'
p1866
F0.0
sS'501196'
p1867
F0.4358974358974359
sS'88499'
p1868
F2.282051282051282
sS'518196'
p1869
F0.0
sS'74251'
p1870
F0.0
sS'759245'
p1871
F0.358974358974359
sS'414160'
p1872
F0.0
sS'765620'
p1873
F0.35714285714285715
sS'598355'
p1874
F0.0
sS'797249'
p1875
F0.0
sS'90446'
p1876
F0.1794871794871795
sS'89983'
p1877
F0.0
sS'202168'
p1878
F0.075
sS'195467'
p1879
F0.0
sS'414365'
p1880
F0.0
sS'508804'
p1881
F0.07692307692307693
sS'400134'
p1882
F0.025
sS'518250'
p1883
F0.0
sS'60190'
p1884
F0.023809523809523808
sS'305415'
p1885
F0.225
sS'412903'
p1886
F0.075
sS'2393'
p1887
F0.14285714285714285
sS'706174'
p1888
F0.125
sS'578517'
p1889
F0.14634146341463414
sS'669615'
p1890
F0.0
sS'951830'
p1891
F0.047619047619047616
sS'54016'
p1892
F0.023255813953488372
sS'141486'
p1893
F0.024390243902439025
sS'361632'
p1894
F0.0
sS'293772'
p1895
F0.0
sS'20615'
p1896
F0.04878048780487805
sS'947615'
p1897
F0.0
sS'46881'
p1898
F0.37209302325581395
sS'205534'
p1899
F0.1
sS'459399'
p1900
F0.0
sS'492149'
p1901
F0.05128205128205128
sS'766076'
p1902
F0.4186046511627907
sS'410640'
p1903
F0.8048780487804879
sS'660109'
p1904
F0.0
sS'951725'
p1905
F0.07142857142857142
sS'766745'
p1906
F0.0
sS'221859'
p1907
F0.02564102564102564
sS'932183'
p1908
F0.07142857142857142
sS'407148'
p1909
F0.0
sS'807662'
p1910
F0.20930232558139536
sS'747930'
p1911
F0.2
sS'139089'
p1912
F0.0
sS'187972'
p1913
F0.0
sS'176158'
p1914
F0.35714285714285715
sS'176404'
p1915
F0.047619047619047616
sS'223639'
p1916
F0.07692307692307693
sS'186265'
p1917
F0.09523809523809523
sS'454664'
p1918
F0.28205128205128205
sS'470971'
p1919
F0.05128205128205128
sS'21186'
p1920
F0.0
sS'485755'
p1921
F0.05128205128205128
sS'80284'
p1922
F0.375
sS'574998'
p1923
F0.0
sS'167685'
p1924
F0.0
sS'514374'
p1925
F0.0
sS'493988'
p1926
F0.3076923076923077
sS'911439'
p1927
F0.0
sS'932989'
p1928
F0.047619047619047616
sS'294097'
p1929
F0.0
sS'687022'
p1930
F0.025
sS'621673'
p1931
F0.05
sS'536924'
p1932
F0.10256410256410256
sS'402691'
p1933
F0.17073170731707318
sS'418896'
p1934
F0.0
sS'958050'
p1935
F0.0
sS'325037'
p1936
F0.0
sS'139883'
p1937
F0.047619047619047616
sS'135851'
p1938
F0.0
sS'190220'
p1939
F0.5121951219512195
sS'168057'
p1940
F0.0
sS'170828'
p1941
F0.0
sS'879168'
p1942
F0.04878048780487805
sS'436036'
p1943
F0.0
sS'120837'
p1944
F0.0
sS'210460'
p1945
F0.525
sS'163326'
p1946
F0.13953488372093023
sS'655906'
p1947
F0.025
sS'77578'
p1948
F0.0
sS'302710'
p1949
F0.04878048780487805
sS'336123'
p1950
F0.024390243902439025
sS'120839'
p1951
F0.02564102564102564
sS'45601'
p1952
F0.025
sS'750545'
p1953
F0.0
sS'53841'
p1954
F0.20930232558139536
sS'125938'
p1955
F0.023255813953488372
sS'321058'
p1956
F0.0
sS'831963'
p1957
F0.12195121951219512
sS'395099'
p1958
F0.10256410256410256
sS'544298'
p1959
F0.02564102564102564
sS'181397'
p1960
F0.07142857142857142
sS'438022'
p1961
F0.28205128205128205
sS'196580'
p1962
F0.024390243902439025
sS'291937'
p1963
F2.8974358974358974
sS'251975'
p1964
F0.0
sS'694482'
p1965
F0.0
sS'554651'
p1966
F0.0
sS'219003'
p1967
F0.02564102564102564
sS'219000'
p1968
F0.15384615384615385
sS'687824'
p1969
F0.025
sS'219006'
p1970
F0.28205128205128205
sS'160011'
p1971
F0.07692307692307693
sS'739052'
p1972
F0.0
sS'801321'
p1973
F0.0
sS'786850'
p1974
F0.0
sS'656435'
p1975
F0.05
sS'591718'
p1976
F0.14634146341463414
sS'504913'
p1977
F0.46153846153846156
sS'299139'
p1978
F0.1282051282051282
sS'24007'
p1979
F0.07317073170731707
sS'828298'
p1980
F0.0
sS'444173'
p1981
F0.02564102564102564
sS'191644'
p1982
F0.1951219512195122
sS'60227'
p1983
F0.0
sS'479764'
p1984
F0.3333333333333333
sS'164491'
p1985
F0.046511627906976744
sS'113465'
p1986
F0.07692307692307693
sS'198418'
p1987
F0.17073170731707318
sS'568676'
p1988
F0.0
sS'9215'
p1989
F0.023809523809523808
sS'829178'
p1990
F0.023809523809523808
sS'596823'
p1991
F0.12195121951219512
sS'112730'
p1992
F0.1282051282051282
sS'696406'
p1993
F0.0
sS'518845'
p1994
F0.1794871794871795
sS'242676'
p1995
F0.0
sS'757545'
p1996
F0.0
sS'123895'
p1997
F1.186046511627907
sS'893498'
p1998
F0.0
sS'75240'
p1999
F0.4
sS'63518'
p2000
F0.04878048780487805
sS'479018'
p2001
F0.10256410256410256
sS'58417'
p2002
F0.30952380952380953
sS'316496'
p2003
F0.0
sS'875882'
p2004
F0.0
sS'831812'
p2005
F0.04878048780487805
sS'197762'
p2006
F0.0
sS'335480'
p2007
F0.0
sS'569091'
p2008
F0.0
sS'217956'
p2009
F0.5897435897435898
sS'66321'
p2010
F0.0975609756097561
sS'882837'
p2011
F0.024390243902439025
sS'238818'
p2012
F0.06976744186046512
sS'521037'
p2013
F0.23076923076923078
sS'315826'
p2014
F0.02564102564102564
sS'546424'
p2015
F0.0
sS'333020'
p2016
F0.04878048780487805
sS'333621'
p2017
F0.0
sS'608687'
p2018
F0.36585365853658536
sS'869926'
p2019
F0.04878048780487805
sS'171279'
p2020
F0.7674418604651163
sS'796879'
p2021
F0.0
sS'392653'
p2022
F0.025
sS'40872'
p2023
F0.0
sS'460755'
p2024
F0.02564102564102564
sS'238499'
p2025
F0.13953488372093023
sS'728684'
p2026
F0.1
sS'209697'
p2027
F0.0
sS'511249'
p2028
F0.0
sS'811658'
p2029
F0.4186046511627907
sS'957482'
p2030
F0.16666666666666666
sS'12892'
p2031
F0.0
sS'372240'
p2032
F0.5128205128205128
sS'752464'
p2033
F0.0
sS'752465'
p2034
F0.0
sS'237920'
p2035
F0.0
sS'147765'
p2036
F0.024390243902439025
sS'13868'
p2037
F0.07317073170731707
sS'775961'
p2038
F0.0
sS'197839'
p2039
F0.0975609756097561
sS'183130'
p2040
F0.2857142857142857
sS'914977'
p2041
F0.07317073170731707
sS'319894'
p2042
F0.0
sS'39441'
p2043
F0.0
sS'206375'
p2044
F0.0
sS'355649'
p2045
F0.4
sS'145944'
p2046
F0.12195121951219512
sS'487316'
p2047
F0.02564102564102564
sS'313016'
p2048
F2.128205128205128
sS'814626'
p2049
F0.0
sS'658939'
p2050
F0.0
sS'83187'
p2051
F0.075
sS'114955'
p2052
F0.0
sS'174024'
p2053
F0.0
sS'242705'
p2054
F0.0
sS'725137'
p2055
F0.0
sS'79421'
p2056
F0.45
sS'84168'
p2057
F0.05128205128205128
sS'725130'
p2058
F0.0
sS'307612'
p2059
F0.0
sS'826591'
p2060
F0.14285714285714285
sS'225282'
p2061
F0.20512820512820512
sS'224491'
p2062
F0.0
sS'114390'
p2063
F0.3076923076923077
sS'160554'
p2064
F0.28205128205128205
sS'203718'
p2065
F0.025
sS'681877'
p2066
F0.225
sS'8061'
p2067
F0.11904761904761904
sS'144126'
p2068
F0.2682926829268293
sS'803018'
p2069
F0.023255813953488372
sS'91112'
p2070
F0.23076923076923078
sS'398427'
p2071
F0.02564102564102564
sS'728570'
p2072
F0.075
sS'239964'
p2073
F0.023255813953488372
sS'51011'
p2074
F0.0
sS'537027'
p2075
F0.02564102564102564
sS'32844'
p2076
F0.0
sS'686880'
p2077
F0.025
sS'575566'
p2078
F0.41025641025641024
sS'89876'
p2079
F0.20512820512820512
sS'437245'
p2080
F0.15384615384615385
sS'938622'
p2081
F0.07142857142857142
sS'219530'
p2082
F0.0
sS'171653'
p2083
F0.23255813953488372
sS'511490'
p2084
F0.02564102564102564
sS'261646'
p2085
F0.0
sS'130342'
p2086
F0.11904761904761904
sS'874002'
p2087
F0.07317073170731707
sS'78913'
p2088
F0.0
sS'501090'
p2089
F0.2564102564102564
sS'921648'
p2090
F0.0
sS'120682'
p2091
F0.02564102564102564
sS'180202'
p2092
F0.0
sS'308081'
p2093
F0.25
sS'180200'
p2094
F0.2857142857142857
sS'231175'
p2095
F0.05128205128205128
sS'913125'
p2096
F0.024390243902439025
sS'792350'
p2097
F0.0
sS'955725'
p2098
F0.0
sS'326655'
p2099
F0.0
sS'458637'
p2100
F0.07692307692307693
sS'577502'
p2101
F0.0
sS'72190'
p2102
F0.0
sS'931994'
p2103
F0.16666666666666666
sS'308403'
p2104
F0.0
sS'308402'
p2105
F0.025
sS'120758'
p2106
F0.15384615384615385
sS'493778'
p2107
F0.0
sS'213380'
p2108
F0.1
sS'699851'
p2109
F0.0
sS'694922'
p2110
F0.0
sS'312498'
p2111
F0.1282051282051282
sS'503633'
p2112
F0.02564102564102564
sS'689684'
p2113
F0.1
sS'354590'
p2114
F0.0
sS'765286'
p2115
F0.23809523809523808
sS'915279'
p2116
F0.21951219512195122
sS'3851'
p2117
F0.07142857142857142
sS'259789'
p2118
F0.0
sS'314898'
p2119
F0.6410256410256411
sS'768376'
p2120
F0.2857142857142857
sS'897391'
p2121
F0.0
sS'760835'
p2122
F0.05128205128205128
sS'556925'
p2123
F0.024390243902439025
sS'417327'
p2124
F0.0
sS'802432'
p2125
F0.023809523809523808
sS'556920'
p2126
F0.34146341463414637
sS'45020'
p2127
F0.0
sS'354170'
p2128
F0.0
sS'221719'
p2129
F0.0
sS'209511'
p2130
F0.0
sS'639562'
p2131
F0.025
sS'276692'
p2132
F0.0
sS'241758'
p2133
F1.186046511627907
sS'711997'
p2134
F0.0
sS'300392'
p2135
F0.12195121951219512
sS'19786'
p2136
F0.12195121951219512
sS'214154'
p2137
F0.075
sS'968434'
p2138
F0.0
sS'711990'
p2139
F0.125
sS'827218'
p2140
F0.0
sS'405430'
p2141
F0.024390243902439025
sS'890042'
p2142
F0.024390243902439025
sS'57942'
p2143
F0.047619047619047616
sS'343498'
p2144
F0.24390243902439024
sS'720786'
p2145
F0.0
sS'397221'
p2146
F0.3333333333333333
sS'581922'
p2147
F0.0
sS'51762'
p2148
F0.0
sS'312789'
p2149
F0.0
sS'78086'
p2150
F0.05
sS'101243'
p2151
F0.05
sS'992578'
p2152
F0.16666666666666666
sS'603630'
p2153
F0.17073170731707318
sS'592198'
p2154
F0.21951219512195122
sS'517285'
p2155
F0.05128205128205128
sS'791551'
p2156
F0.0
sS'193113'
p2157
F0.5853658536585366
sS'686067'
p2158
F0.125
sS'46722'
p2159
F0.0
sS'972143'
p2160
F0.0
sS'475708'
p2161
F0.0
sS'315377'
p2162
F0.0
sS'383071'
p2163
F0.05128205128205128
sS'477718'
p2164
F0.0
sS'170765'
p2165
F0.023255813953488372
sS'148463'
p2166
F0.425
sS'832424'
p2167
F0.0
sS'505405'
p2168
F0.0
sS'167231'
p2169
F0.9302325581395349
sS'873621'
p2170
F0.07317073170731707
sS'311308'
p2171
F0.0
sS'859001'
p2172
F0.7560975609756098
sS'458149'
p2173
F0.3076923076923077
sS'536049'
p2174
F0.1282051282051282
sS'457703'
p2175
F0.02564102564102564
sS'200333'
p2176
F0.12195121951219512
sS'240530'
p2177
F0.06976744186046512
sS'678149'
p2178
F0.0
sS'154578'
p2179
F0.05
sS'941330'
p2180
F0.0
sS'120538'
p2181
F0.02564102564102564
sS'903702'
p2182
F0.0
sS'230940'
p2183
F0.0
sS'39842'
p2184
F0.0
sS'303705'
p2185
F0.12195121951219512
sS'190342'
p2186
F0.40476190476190477
sS'10338'
p2187
F0.0
sS'813931'
p2188
F0.18604651162790697
sS'386359'
p2189
F0.2564102564102564
sS'134913'
p2190
F0.0
sS'118236'
p2191
F0.2564102564102564
sS'118235'
p2192
F0.05128205128205128
sS'87289'
p2193
F0.0
sS'188820'
p2194
F0.04878048780487805
sS'686403'
p2195
F0.0
sS'686401'
p2196
F0.0
sS'999886'
p2197
F0.023809523809523808
sS'571049'
p2198
F0.0
sS'618875'
p2199
F0.2
sS'618876'
p2200
F0.125
sS'955624'
p2201
F0.14285714285714285
sS'915361'
p2202
F0.0
sS'679149'
p2203
F0.1
sS'737612'
p2204
F0.0
sS'87456'
p2205
F0.1794871794871795
sS'244700'
p2206
F0.0
sS'901499'
p2207
F0.0
sS'329700'
p2208
F0.0975609756097561
sS'306863'
p2209
F0.0
sS'167699'
p2210
F0.023255813953488372
sS'890552'
p2211
F0.024390243902439025
sS'619502'
p2212
F0.0
sS'192653'
p2213
F0.0
sS'112388'
p2214
F0.0
sS'943296'
p2215
F0.35714285714285715
sS'911933'
p2216
F0.0
sS'363315'
p2217
F0.025
sS'193850'
p2218
F0.0975609756097561
sS'2618'
p2219
F0.16666666666666666
sS'334989'
p2220
F0.024390243902439025
sS'849960'
p2221
F0.12195121951219512
sS'135846'
p2222
F0.0
sS'576153'
p2223
F0.2682926829268293
sS'416939'
p2224
F0.0
sS'890953'
p2225
F0.0
sS'96521'
p2226
F0.075
sS'902436'
p2227
F0.024390243902439025
sS'303633'
p2228
F0.07317073170731707
sS'222660'
p2229
F0.02564102564102564
sS'762198'
p2230
F0.0
sS'723792'
p2231
F0.025
sS'90092'
p2232
F0.02564102564102564
sS'575164'
p2233
F0.10256410256410256
sS'874074'
p2234
F0.9024390243902439
sS'480069'
p2235
F0.0
sS'236318'
p2236
F0.46511627906976744
sS'912762'
p2237
F0.17073170731707318
sS'33172'
p2238
F0.05128205128205128
sS'138694'
p2239
F0.0
sS'36430'
p2240
F0.0
sS'380327'
p2241
F0.0
sS'841326'
p2242
F0.0
sS'623146'
p2243
F0.0
sS'123406'
p2244
F0.0
sS'14966'
p2245
F0.0975609756097561
sS'402998'
p2246
F0.0
sS'57589'
p2247
F0.0
sS'955645'
p2248
F0.0
sS'133116'
p2249
F0.0
sS'862344'
p2250
F0.17073170731707318
sS'246143'
p2251
F0.0
sS'519679'
p2252
F0.0
sS'171899'
p2253
F0.046511627906976744
sS'696782'
p2254
F0.05
sS'219017'
p2255
F0.07692307692307693
sS'371709'
p2256
F0.2
sS'14146'
p2257
F0.4878048780487805
sS'323975'
p2258
F0.0
sS'694235'
p2259
F0.0
sS'304895'
p2260
F0.075
sS'902868'
p2261
F0.0
sS'530040'
p2262
F0.0
sS'226156'
p2263
F0.0
sS'509407'
p2264
F0.0
sS'180845'
p2265
F0.047619047619047616
sS'540970'
p2266
F0.02564102564102564
sS'30557'
p2267
F0.025
sS'737871'
p2268
F0.0
sS'237138'
p2269
F0.0
sS'237139'
p2270
F0.0
sS'163592'
p2271
F0.32558139534883723
sS'54267'
p2272
F0.0
sS'71233'
p2273
F0.07317073170731707
sS'722556'
p2274
F0.025
sS'757558'
p2275
F0.0
sS'232634'
p2276
F0.0
sS'721092'
p2277
F0.0
sS'97522'
p2278
F0.075
sS'41656'
p2279
F0.15384615384615385
sS'238156'
p2280
F0.0
sS'947895'
p2281
F0.047619047619047616
sS'914982'
p2282
F0.024390243902439025
sS'804719'
p2283
F0.023255813953488372
sS'608742'
p2284
F0.0
sS'187622'
p2285
F0.4878048780487805
sS'468991'
p2286
F1.2307692307692308
sS'645626'
p2287
F0.175
sS'576807'
p2288
F0.0
sS'471727'
p2289
F0.0
sS'416022'
p2290
F2.25
sS'495313'
p2291
F0.0
sS'493958'
p2292
F0.0
sS'643602'
p2293
F0.15
sS'77170'
p2294
F0.0
sS'284418'
p2295
F0.15384615384615385
sS'179734'
p2296
F0.047619047619047616
sS'569557'
p2297
F0.225
sS'487601'
p2298
F0.28205128205128205
sS'864204'
p2299
F0.0
sS'869934'
p2300
F0.024390243902439025
sS'331456'
p2301
F0.024390243902439025
sS'237354'
p2302
F0.023255813953488372
sS'169435'
p2303
F0.09302325581395349
sS'296253'
p2304
F0.10256410256410256
sS'31285'
p2305
F0.0
sS'226973'
p2306
F0.05128205128205128
sS'188134'
p2307
F1.024390243902439
sS'164113'
p2308
F0.0
sS'439360'
p2309
F0.0
sS'751412'
p2310
F0.0
sS'66916'
p2311
F0.2682926829268293
sS'288762'
p2312
F0.0
sS'769082'
p2313
F0.0
sS'627838'
p2314
F0.075
sS'848307'
p2315
F0.17073170731707318
sS'31288'
p2316
F0.025
sS'814494'
p2317
F0.0
sS'284389'
p2318
F0.8205128205128205
sS'30806'
p2319
F0.05
sS'565669'
p2320
F0.15
sS'729160'
p2321
F0.0
sS'497102'
p2322
F0.0
sS'805717'
p2323
F0.023255813953488372
sS'437793'
p2324
F0.0
sS'659426'
p2325
F0.3
sS'698930'
p2326
F0.025
sS'677324'
p2327
F0.0
sS'238798'
p2328
F0.0
sS'186681'
p2329
F0.0
sS'495267'
p2330
F0.0
sS'495269'
p2331
F0.0
sS'820801'
p2332
F0.07142857142857142
sS'913823'
p2333
F0.07317073170731707
sS'242732'
p2334
F0.0
sS'221389'
p2335
F0.0
sS'819457'
p2336
F0.09523809523809523
sS'239516'
p2337
F0.0
sS'810399'
p2338
F0.0
sS'818909'
p2339
F0.023809523809523808
sS'705986'
p2340
F0.0
sS'192250'
p2341
F0.0
sS'188228'
p2342
F0.023809523809523808
sS'273892'
p2343
F0.0
sS'656305'
p2344
F0.05
sS'132409'
p2345
F0.0
sS'399898'
p2346
F0.3076923076923077
sS'299930'
p2347
F0.04878048780487805
sS'187002'
p2348
F0.023809523809523808
sS'881633'
p2349
F0.07317073170731707
sS'988964'
p2350
F0.21428571428571427
sS'197163'
p2351
F0.024390243902439025
sS'107316'
p2352
F0.0
sS'228630'
p2353
F0.0
sS'848468'
p2354
F0.36585365853658536
sS'417881'
p2355
F0.0
sS'183016'
p2356
F1.4047619047619047
sS'214942'
p2357
F0.1
sS'305852'
p2358
F0.0
sS'57935'
p2359
F0.07142857142857142
sS'22573'
p2360
F0.05
sS'248511'
p2361
F0.0
sS'32896'
p2362
F0.0
sS'366221'
p2363
F0.0
sS'812085'
p2364
F0.09302325581395349
sS'205555'
p2365
F0.55
sS'852641'
p2366
F0.21951219512195122
sS'886304'
p2367
F33.51219512195122
sS'126948'
p2368
F0.0
sS'711853'
p2369
F0.175
sS'19463'
p2370
F0.17073170731707318
sS'711851'
p2371
F0.025
sS'193440'
p2372
F0.07317073170731707
sS'792341'
p2373
F2.0238095238095237
sS'72559'
p2374
F0.0
sS'812318'
p2375
F0.0
sS'508703'
p2376
F0.15384615384615385
sS'91543'
p2377
F0.0
sS'136236'
p2378
F0.0
sS'314937'
p2379
F0.1794871794871795
sS'7852'
p2380
F0.0
sS'624549'
p2381
F0.125
sS'332718'
p2382
F0.5365853658536586
sS'599189'
p2383
F0.024390243902439025
sS'949976'
p2384
F0.047619047619047616
sS'374422'
p2385
F0.075
sS'392847'
p2386
F0.0
sS'4135'
p2387
F0.047619047619047616
sS'541604'
p2388
F0.07692307692307693
sS'177887'
p2389
F0.11904761904761904
sS'318682'
p2390
F0.6829268292682927
sS'929265'
p2391
F0.0
sS'406510'
p2392
F0.0
sS'409311'
p2393
F0.36585365853658536
sS'911981'
p2394
F0.07317073170731707
sS'383640'
p2395
F1.3333333333333333
sS'155763'
p2396
F0.1282051282051282
sS'697936'
p2397
F0.025
sS'323291'
p2398
F2.682926829268293
sS'667842'
p2399
F0.1
sS'550011'
p2400
F0.07692307692307693
sS'670305'
p2401
F1.175
sS'833693'
p2402
F0.07317073170731707
sS'311262'
p2403
F0.02564102564102564
sS'227947'
p2404
F0.0
sS'687210'
p2405
F0.3
sS'500354'
p2406
F0.0
sS'89732'
p2407
F0.38461538461538464
sS'524040'
p2408
F0.0
sS'818653'
p2409
F0.0
sS'313822'
p2410
F0.7948717948717948
sS'131174'
p2411
F1.8333333333333333
sS'988449'
p2412
F0.023809523809523808
sS'737273'
p2413
F0.025
sS'639957'
p2414
F0.05
sS'499804'
p2415
F0.0
sS'182693'
p2416
F0.0
sS'121921'
p2417
F0.0
sS'276639'
p2418
F0.05
sS'161210'
p2419
F0.0
sS'146486'
p2420
F0.04878048780487805
sS'221126'
p2421
F0.0
sS'100653'
p2422
F0.05
sS'420768'
p2423
F0.15384615384615385
sS'489072'
p2424
F0.0
sS'632720'
p2425
F0.05
sS'690670'
p2426
F0.05
sS'463955'
p2427
F0.0
sS'463954'
p2428
F0.0
sS'328155'
p2429
F0.024390243902439025
sS'570675'
p2430
F0.8717948717948718
sS'19841'
p2431
F0.0
sS'468238'
p2432
F0.02564102564102564
sS'807652'
p2433
F0.09302325581395349
sS'253860'
p2434
F0.0
sS'639818'
p2435
F0.1
sS'153405'
p2436
F0.05
sS'839449'
p2437
F0.07317073170731707
sS'304074'
p2438
F0.0975609756097561
sS'182233'
p2439
F0.023809523809523808
sS'189310'
p2440
F0.34146341463414637
sS'509799'
p2441
F0.0
sS'150448'
p2442
F1.05
sS'150449'
p2443
F0.5
sS'989268'
p2444
F0.09523809523809523
sS'509791'
p2445
F0.0
sS'101433'
p2446
F0.0
sS'101671'
p2447
F0.0
sS'702059'
p2448
F1.775
sS'680631'
p2449
F0.075
sS'410877'
p2450
F0.07317073170731707
sS'270752'
p2451
F0.2682926829268293
sS'582105'
p2452
F0.0
sS'193425'
p2453
F0.0
sS'756487'
p2454
F0.125
sS'96134'
p2455
F0.8
sS'56342'
p2456
F0.07142857142857142
sS'796494'
p2457
F0.0
sS'230997'
p2458
F0.6153846153846154
sS'942977'
p2459
F0.8095238095238095
sS'193661'
p2460
F0.5121951219512195
sS'465119'
p2461
F0.0
sS'603447'
p2462
F0.024390243902439025
sS'603446'
p2463
F0.0
sS'750259'
p2464
F0.025
sS'975884'
p2465
F0.0
sS'306922'
p2466
F0.175
sS'999740'
p2467
F0.11904761904761904
sS'358470'
p2468
F0.0
sS'201816'
p2469
F0.0
sS'79790'
p2470
F0.05
sS'711754'
p2471
F0.025
sS'1879'
p2472
F0.06976744186046512
sS'293682'
p2473
F0.7948717948717948
sS'134272'
p2474
F0.0
sS'261162'
p2475
F0.0
sS'490141'
p2476
F0.7435897435897436
sS'795742'
p2477
F0.0
sS'250843'
p2478
F0.0
sS'686053'
p2479
F0.575
sS'184689'
p2480
F0.023809523809523808
sS'387613'
p2481
F0.1282051282051282
sS'732631'
p2482
F0.0
sS'601863'
p2483
F0.024390243902439025
sS'80266'
p2484
F0.0
sS'184682'
p2485
F0.023809523809523808
sS'544928'
p2486
F0.07692307692307693
sS'152205'
p2487
F0.025
sS'118829'
p2488
F0.02564102564102564
sS'564724'
p2489
F0.6
sS'406045'
p2490
F0.04878048780487805
sS'482482'
p2491
F0.0
sS'412032'
p2492
F0.0
sS'68958'
p2493
F1.0
sS'422550'
p2494
F0.10256410256410256
sS'479851'
p2495
F0.0
sS'574953'
p2496
F0.02564102564102564
sS'182351'
p2497
F0.35714285714285715
sS'191628'
p2498
F0.43902439024390244
sS'367466'
p2499
F0.02564102564102564
sS'510526'
p2500
F0.0
sS'176289'
p2501
F0.09523809523809523
sS'850072'
p2502
F0.024390243902439025
sS'191621'
p2503
F0.12195121951219512
sS'830947'
p2504
F0.0
sS'952806'
p2505
F0.023809523809523808
sS'102226'
p2506
F0.025
sS'60710'
p2507
F0.09523809523809523
sS'321290'
p2508
F0.14634146341463414
sS'210480'
p2509
F0.15
sS'251245'
p2510
F0.0
sS'851546'
p2511
F0.024390243902439025
sS'320100'
p2512
F0.0
sS'198658'
p2513
F0.04878048780487805
sS'199703'
p2514
F0.04878048780487805
sS'824298'
p2515
F0.047619047619047616
sS'48254'
p2516
F0.23255813953488372
sS'744126'
p2517
F0.075
sS'446144'
p2518
F0.02564102564102564
sS'346268'
p2519
F0.0
sS'708764'
p2520
F0.025
sS'708763'
p2521
F0.1
sS'890965'
p2522
F0.0
sS'563846'
p2523
F0.0
sS'588255'
p2524
F0.0
sS'412109'
p2525
F0.1951219512195122
sS'870562'
p2526
F0.07317073170731707
sS'152115'
p2527
F0.025
sS'121675'
p2528
F0.0
sS'565759'
p2529
F0.025
sS'122412'
p2530
F0.025
sS'193849'
p2531
F0.0975609756097561
sS'947136'
p2532
F0.0
sS'219020'
p2533
F0.358974358974359
sS'226386'
p2534
F0.0
sS'623908'
p2535
F0.375
sS'94700'
p2536
F0.0
sS'304881'
p2537
F1.025
sS'83911'
p2538
F0.02564102564102564
sS'791850'
p2539
F0.023809523809523808
sS'727043'
p2540
F0.025
sS'788244'
p2541
F0.047619047619047616
sS'164905'
p2542
F0.046511627906976744
sS'836403'
p2543
F0.0
sS'54131'
p2544
F0.0
sS'596518'
p2545
F0.12195121951219512
sS'278994'
p2546
F1.125
sS'534211'
p2547
F0.0
sS'840339'
p2548
F0.0
sS'14806'
p2549
F0.0
sS'826720'
p2550
F0.0
sS'278998'
p2551
F1.15
sS'122890'
p2552
F0.32558139534883723
sS'441897'
p2553
F0.0
sS'941195'
p2554
F0.047619047619047616
sS'451324'
p2555
F0.02564102564102564
sS'230311'
p2556
F0.02564102564102564
sS'347223'
p2557
F1.275
sS'636914'
p2558
F0.0
sS'132891'
p2559
F0.0
sS'847642'
p2560
F0.0
sS'167807'
p2561
F0.20930232558139536
sS'317162'
p2562
F0.02564102564102564
sS'220830'
p2563
F0.0
sS'991810'
p2564
F0.0
sS'438833'
p2565
F0.07692307692307693
sS'70'
p2566
F0.046511627906976744
sS'399798'
p2567
F0.10256410256410256
sS'629087'
p2568
F0.0
sS'564654'
p2569
F0.025
sS'541524'
p2570
F0.1794871794871795
sS'208493'
p2571
F0.025
sS'208492'
p2572
F0.0
sS'339106'
p2573
F0.14634146341463414
sS'78157'
p2574
F0.37209302325581395
sS'306108'
p2575
F0.075
sS'156234'
p2576
F0.0
sS'759051'
p2577
F0.0
sS'58725'
p2578
F0.0
sS'462176'
p2579
F0.05128205128205128
sS'797581'
p2580
F0.0
sS'158680'
p2581
F0.0
sS'525351'
p2582
F0.02564102564102564
sS'865619'
p2583
F0.36585365853658536
sS'662253'
p2584
F0.05
sS'560182'
p2585
F0.0
sS'229225'
p2586
F0.05128205128205128
sS'414742'
p2587
F0.024390243902439025
sS'970232'
p2588
F0.047619047619047616
sS'578222'
p2589
F0.24390243902439024
sS'954680'
p2590
F0.07142857142857142
sS'86633'
p2591
F0.0
sS'86634'
p2592
F0.1282051282051282
sS'231571'
p2593
F0.0
sS'631918'
p2594
F0.0
sS'175932'
p2595
F0.0
sS'315897'
p2596
F0.0
sS'291264'
p2597
F0.0
sS'377422'
p2598
F0.0
sS'591128'
p2599
F0.34146341463414637
sS'174516'
p2600
F0.0
sS'715367'
p2601
F0.025
sS'160613'
p2602
F0.20512820512820512
sS'694918'
p2603
F0.0
sS'565384'
p2604
F0.1
sS'156947'
p2605
F0.07692307692307693
sS'405122'
p2606
F0.0
sS'223585'
p2607
F1.4615384615384615
sS'315948'
p2608
F0.15384615384615385
sS'29054'
p2609
F0.35
sS'229134'
p2610
F0.05128205128205128
sS'785087'
p2611
F0.0
sS'746725'
p2612
F0.0
sS'433377'
p2613
F0.0
sS'115887'
p2614
F0.3076923076923077
sS'229822'
p2615
F0.02564102564102564
sS'73783'
p2616
F0.023809523809523808
sS'885858'
p2617
F0.21951219512195122
sS'374094'
p2618
F0.20512820512820512
sS'221395'
p2619
F0.0
sS'572132'
p2620
F0.07692307692307693
sS'882076'
p2621
F0.024390243902439025
sS'883813'
p2622
F1.0975609756097562
sS'429130'
p2623
F0.23076923076923078
sS'979104'
p2624
F0.023809523809523808
sS'4236'
p2625
F0.07142857142857142
sS'365351'
p2626
F0.0
sS'847468'
p2627
F0.14634146341463414
sS'352967'
p2628
F0.025
sS'180042'
p2629
F0.0
sS'804521'
p2630
F0.046511627906976744
sS'575786'
p2631
F0.0
sS'975926'
p2632
F0.0
sS'760213'
p2633
F0.02564102564102564
sS'769145'
p2634
F0.023809523809523808
sS'765362'
p2635
F0.0
sS'145522'
p2636
F0.0
sS'730392'
p2637
F0.175
sS'23166'
p2638
F0.275
sS'435653'
p2639
F0.0
sS'230533'
p2640
F0.0
sS'833280'
p2641
F0.04878048780487805
sS'99280'
p2642
F0.0
sS'38202'
p2643
F0.02564102564102564
sS'103685'
p2644
F0.25
sS'819733'
p2645
F0.0
sS'712245'
p2646
F0.25
sS'407929'
p2647
F0.0
sS'304241'
p2648
F0.0
sS'681786'
p2649
F0.375
sS'189075'
p2650
F0.04878048780487805
sS'282038'
p2651
F0.025
sS'729201'
p2652
F0.0
sS'228997'
p2653
F0.0
sS'789822'
p2654
F0.0
sS'89828'
p2655
F0.0
sS'577034'
p2656
F0.0
sS'956190'
p2657
F0.23809523809523808
sS'903380'
p2658
F0.04878048780487805
sS'738701'
p2659
F0.05
sS'284846'
p2660
F0.0
sS'231000'
p2661
F0.0
sS'677127'
p2662
F0.025
sS'262326'
p2663
F0.0
sS'287395'
p2664
F0.20512820512820512
sS'598342'
p2665
F0.14634146341463414
sS'352259'
p2666
F0.225
sS'88926'
p2667
F0.0
sS'851488'
p2668
F0.12195121951219512
sS'79505'
p2669
F0.05
sS'799306'
p2670
F0.023809523809523808
sS'165185'
p2671
F1.2325581395348837
sS'165184'
p2672
F0.13953488372093023
sS'861217'
p2673
F0.14634146341463414
sS'852747'
p2674
F0.3170731707317073
sS'561922'
p2675
F0.04878048780487805
sS'979110'
p2676
F0.0
sS'377475'
p2677
F0.1794871794871795
sS'116539'
p2678
F0.05128205128205128
sS'334420'
p2679
F0.0
sS'334421'
p2680
F0.24390243902439024
sS'447836'
p2681
F0.3333333333333333
sS'464222'
p2682
F0.02564102564102564
sS'847860'
p2683
F0.0
sS'870823'
p2684
F0.21951219512195122
sS'856009'
p2685
F0.4146341463414634
sS'52431'
p2686
F0.3023255813953488
sS'588459'
p2687
F0.024390243902439025
sS'313817'
p2688
F0.0
sS'772516'
p2689
F0.0
sS'69905'
p2690
F0.0
sS'220283'
p2691
F1.1025641025641026
sS'410205'
p2692
F0.0
sS'418673'
p2693
F0.0
sS'177985'
p2694
F0.35714285714285715
sS'582610'
p2695
F0.15384615384615385
sS'93281'
p2696
F0.717948717948718
sS'465291'
p2697
F0.07692307692307693
sS'304082'
p2698
F0.125
sS'698736'
p2699
F0.075
sS'308512'
p2700
F0.45
sS'413831'
p2701
F0.12195121951219512
sS'593028'
p2702
F0.0
sS'276411'
p2703
F0.05
sS'260804'
p2704
F0.0
sS'687667'
p2705
F0.15
sS'51985'
p2706
F0.0
sS'304061'
p2707
F0.04878048780487805
sS'845426'
p2708
F0.1951219512195122
sS'699332'
p2709
F0.075
sS'150454'
p2710
F0.1
sS'75268'
p2711
F0.075
sS'494799'
p2712
F0.0
sS'312853'
p2713
F0.10256410256410256
sS'128517'
p2714
F0.0
sS'737392'
p2715
F0.1
sS'360410'
p2716
F0.0
sS'552667'
p2717
F0.0
sS'832715'
p2718
F0.0975609756097561
sS'305449'
p2719
F0.45
sS'82926'
p2720
F0.0
sS'573292'
p2721
F0.0
sS'46413'
p2722
F0.0
sS'46414'
p2723
F0.0
sS'836877'
p2724
F0.0
sS'247834'
p2725
F0.0
sS'990193'
p2726
F0.0
sS'879554'
p2727
F0.0
sS'10643'
p2728
F0.0
sS'406855'
p2729
F0.0975609756097561
sS'293740'
p2730
F0.1794871794871795
sS'118250'
p2731
F0.05128205128205128
sS'38848'
p2732
F0.0
sS'448114'
p2733
F0.20512820512820512
sS'1869'
p2734
F0.0
sS'865223'
p2735
F0.0
sS'408051'
p2736
F0.04878048780487805
sS'358480'
p2737
F0.0
sS'408052'
p2738
F0.024390243902439025
sS'293691'
p2739
F0.2564102564102564
sS'864678'
p2740
F0.0
sS'420947'
p2741
F0.0
sS'199622'
p2742
F0.6341463414634146
sS'81071'
p2743
F0.0
sS'406997'
p2744
F0.024390243902439025
sS'915626'
p2745
F0.24390243902439024
sS'45546'
p2746
F0.02564102564102564
sS'210656'
p2747
F0.475
sS'980235'
p2748
F0.23809523809523808
sS'992459'
p2749
F0.0
sS'810170'
p2750
F0.0
sS'755436'
p2751
F0.0
sS'230581'
p2752
F0.1282051282051282
sS'190523'
p2753
F0.023809523809523808
sS'6057'
p2754
F0.023809523809523808
sS'773193'
p2755
F0.09523809523809523
sS'90565'
p2756
F0.05128205128205128
sS'688209'
p2757
F0.3
sS'90341'
p2758
F0.05128205128205128
sS'483358'
p2759
F0.3076923076923077
sS'362179'
p2760
F0.0
sS'62361'
p2761
F0.09523809523809523
sS'455270'
p2762
F0.07692307692307693
sS'193874'
p2763
F0.2926829268292683
sS'455276'
p2764
F0.0
sS'788661'
p2765
F0.0
sS'836112'
p2766
F0.04878048780487805
sS'193037'
p2767
F0.0975609756097561
sS'301768'
p2768
F0.0
sS'899612'
p2769
F0.0
sS'499364'
p2770
F0.10256410256410256
sS'641393'
p2771
F0.0
sS'821469'
p2772
F0.5714285714285714
sS'265298'
p2773
F0.21951219512195122
sS'44704'
p2774
F0.15384615384615385
sS'444207'
p2775
F0.4358974358974359
sS'33119'
p2776
F0.07317073170731707
sS'827232'
p2777
F0.0
sS'84541'
p2778
F0.025
sS'95538'
p2779
F0.0
sS'81806'
p2780
F0.0
sS'387577'
p2781
F0.05128205128205128
sS'523985'
p2782
F0.0
sS'739930'
p2783
F0.0
sS'773441'
p2784
F0.023255813953488372
sS'293184'
p2785
F0.0
sS'996431'
p2786
F0.0
sS'478557'
p2787
F0.0
sS'618744'
p2788
F0.175
sS'472980'
p2789
F0.02564102564102564
sS'163067'
p2790
F0.13953488372093023
sS'919370'
p2791
F0.0
sS'265274'
p2792
F0.1951219512195122
sS'833803'
p2793
F0.0
sS'944845'
p2794
F0.07142857142857142
sS'198047'
p2795
F0.12195121951219512
sS'211192'
p2796
F0.05
sS'938032'
p2797
F2.3333333333333335
sS'196719'
p2798
F0.024390243902439025
sS'708778'
p2799
F0.0
sS'563856'
p2800
F0.0
sS'194577'
p2801
F0.12195121951219512
sS'918250'
p2802
F0.8780487804878049
sS'367211'
p2803
F0.025
sS'820907'
p2804
F0.0
sS'14160'
p2805
F0.07317073170731707
sS'167965'
p2806
F0.20930232558139536
sS'752482'
p2807
F0.075
sS'451590'
p2808
F0.20512820512820512
sS'30407'
p2809
F0.325
sS'574309'
p2810
F0.0
sS'248087'
p2811
F0.0
sS'722574'
p2812
F0.4
sS'304874'
p2813
F0.525
sS'176586'
p2814
F2.7857142857142856
sS'102670'
p2815
F0.025
sS'813925'
p2816
F0.32558139534883723
sS'122889'
p2817
F0.23255813953488372
sS'954226'
p2818
F0.047619047619047616
sS'661225'
p2819
F0.075
sS'33752'
p2820
F0.0
sS'88056'
p2821
F0.28205128205128205
sS'824204'
p2822
F0.0
sS'285077'
p2823
F0.5897435897435898
sS'102102'
p2824
F0.0
sS'108189'
p2825
F0.0
sS'383410'
p2826
F0.0
sS'40715'
p2827
F0.15384615384615385
sS'115367'
p2828
F0.0
sS'728309'
p2829
F0.0
sS'798596'
p2830
F0.0
sS'608728'
p2831
F0.0
sS'61384'
p2832
F0.0
sS'339284'
p2833
F0.024390243902439025
sS'97669'
p2834
F0.55
sS'557241'
p2835
F0.024390243902439025
sS'667390'
p2836
F0.0
sS'753876'
p2837
F0.025
sS'931717'
p2838
F0.0
sS'92296'
p2839
F0.02564102564102564
sS'183320'
p2840
F0.0
sS'824802'
p2841
F0.0
sS'824803'
p2842
F0.0
sS'213903'
p2843
F0.0
sS'155978'
p2844
F0.0
sS'256021'
p2845
F0.02564102564102564
sS'719030'
p2846
F0.0
sS'558640'
p2847
F0.0
sS'27415'
p2848
F0.3
sS'67286'
p2849
F0.0
sS'44035'
p2850
F0.0
sS'179753'
p2851
F0.0
sS'314662'
p2852
F0.0
sS'137107'
p2853
F1.2380952380952381
sS'568881'
p2854
F0.025
sS'411805'
p2855
F0.36585365853658536
sS'447232'
p2856
F0.0
sS'130935'
p2857
F0.0
sS'394918'
p2858
F0.02564102564102564
sS'508780'
p2859
F0.0
sS'8226'
p2860
F0.38095238095238093
sS'77982'
p2861
F0.0
sS'511921'
p2862
F0.0
sS'676'
p2863
F0.16279069767441862
sS'414755'
p2864
F0.475
sS'375934'
p2865
F0.5641025641025641
sS'896012'
p2866
F0.024390243902439025
sS'557335'
p2867
F0.04878048780487805
sS'316755'
p2868
F0.20512820512820512
sS'108563'
p2869
F0.0
sS'659595'
p2870
F1.0
sS'58426'
p2871
F0.047619047619047616
sS'77859'
p2872
F0.2
sS'591526'
p2873
F0.0
sS'95048'
p2874
F0.0
sS'363993'
p2875
F0.125
sS'338882'
p2876
F0.024390243902439025
sS'212648'
p2877
F0.05
sS'209219'
p2878
F0.8
sS'788692'
p2879
F0.07142857142857142
sS'725329'
p2880
F0.0
sS'368420'
p2881
F0.0
sS'229108'
p2882
F0.05128205128205128
sS'238176'
p2883
F0.0
sS'129482'
p2884
F0.5714285714285714
sS'382913'
p2885
F0.0
sS'662469'
p2886
F0.0
sS'400130'
p2887
F0.0
sS'216504'
p2888
F0.1282051282051282
sS'77212'
p2889
F0.025
sS'188201'
p2890
F0.4878048780487805
sS'970445'
p2891
F0.0
sS'23771'
p2892
F0.275
sS'653799'
p2893
F0.0
sS'169259'
p2894
F0.3023255813953488
sS'863384'
p2895
F0.024390243902439025
sS'548039'
p2896
F0.0
sS'984142'
p2897
F0.5714285714285714
sS'94285'
p2898
F0.07692307692307693
sS'856601'
p2899
F0.07317073170731707
sS'48837'
p2900
F0.5348837209302325
sS'804510'
p2901
F0.11627906976744186
sS'393666'
p2902
F0.02564102564102564
sS'796828'
p2903
F0.047619047619047616
sS'214924'
p2904
F0.0
sS'311633'
p2905
F0.0
sS'635818'
p2906
F0.0
sS'230101'
p2907
F0.0
sS'160745'
p2908
F0.0
sS'193128'
p2909
F0.047619047619047616
sS'303261'
p2910
F0.12195121951219512
sS'457154'
p2911
F0.0
sS'446789'
p2912
F0.0
sS'216215'
p2913
F0.0
sS'47625'
p2914
F0.0
sS'106485'
p2915
F0.0
sS'319169'
p2916
F0.17073170731707318
sS'417312'
p2917
F0.075
sS'600269'
p2918
F0.14634146341463414
sS'982351'
p2919
F0.023809523809523808
sS'305412'
p2920
F0.0975609756097561
sS'681151'
p2921
F0.025
sS'22556'
p2922
F0.35
sS'172446'
p2923
F0.5348837209302325
sS'744703'
p2924
F0.025
sS'172440'
p2925
F0.023809523809523808
sS'417139'
p2926
F1.15
sS'827960'
p2927
F0.0
sS'929190'
p2928
F0.12195121951219512
sS'243700'
p2929
F0.0
sS'867609'
p2930
F0.0
sS'166423'
p2931
F0.0
sS'373141'
p2932
F0.15384615384615385
sS'319353'
p2933
F0.0
sS'822508'
p2934
F0.047619047619047616
sS'340240'
p2935
F0.025
sS'500973'
p2936
F0.0
sS'632904'
p2937
F0.05
sS'100257'
p2938
F0.0
sS'368632'
p2939
F0.4358974358974359
sS'973955'
p2940
F0.47619047619047616
sS'273237'
p2941
F0.4
sS'244979'
p2942
F0.0
sS'224287'
p2943
F0.3076923076923077
sS'55437'
p2944
F0.09523809523809523
sS'925571'
p2945
F0.024390243902439025
sS'379978'
p2946
F0.02564102564102564
sS'872441'
p2947
F0.0
sS'82793'
p2948
F0.2
sS'580869'
p2949
F0.025
sS'803344'
p2950
F0.0
sS'741351'
p2951
F0.075
sS'692448'
p2952
F0.0
sS'292806'
p2953
F0.05128205128205128
sS'292805'
p2954
F0.46153846153846156
sS'631010'
p2955
F0.025
sS'145240'
p2956
F0.1951219512195122
sS'447822'
p2957
F0.05128205128205128
sS'705936'
p2958
F0.0
sS'993344'
p2959
F0.09523809523809523
sS'192025'
p2960
F0.0
sS'921213'
p2961
F0.024390243902439025
sS'316960'
p2962
F0.10256410256410256
sS'696338'
p2963
F0.0
sS'81686'
p2964
F0.075
sS'42918'
p2965
F0.20512820512820512
sS'87140'
p2966
F0.1794871794871795
sS'13771'
p2967
F0.024390243902439025
sS'588286'
p2968
F0.04878048780487805
sS'296126'
p2969
F0.02564102564102564
sS'81113'
p2970
F0.0
sS'172596'
p2971
F0.4883720930232558
sS'253661'
p2972
F0.0
sS'913757'
p2973
F0.0
sS'887952'
p2974
F0.17073170731707318
sS'221101'
p2975
F0.20512820512820512
sS'145640'
p2976
F0.0
sS'594553'
p2977
F0.0
sS'430554'
p2978
F0.02564102564102564
sS'422842'
p2979
F0.0
sS'706003'
p2980
F0.0
sS'240898'
p2981
F0.0
sS'120302'
p2982
F0.02564102564102564
sS'777044'
p2983
F0.2857142857142857
sS'322837'
p2984
F0.024390243902439025
sS'328132'
p2985
F0.024390243902439025
sS'510435'
p2986
F0.05128205128205128
sS'335859'
p2987
F0.0
sS'468252'
p2988
F0.02564102564102564
sS'603862'
p2989
F0.14634146341463414
sS'806073'
p2990
F0.0
sS'372528'
p2991
F0.05128205128205128
sS'878999'
p2992
F0.0
sS'184771'
p2993
F0.07142857142857142
sS'621590'
p2994
F0.025
sS'449347'
p2995
F0.0
sS'518879'
p2996
F0.02564102564102564
sS'93282'
p2997
F0.41025641025641024
sS'405283'
p2998
F0.024390243902439025
sS'212591'
p2999
F0.025
sS'447950'
p3000
F0.10256410256410256
sS'52338'
p3001
F0.0
sS'189895'
p3002
F0.17073170731707318
sS'98357'
p3003
F0.0
sS'953362'
p3004
F0.30952380952380953
sS'832764'
p3005
F0.0
sS'725425'
p3006
F0.0
sS'956691'
p3007
F0.0
sS'305450'
p3008
F0.0
sS'785927'
p3009
F0.023809523809523808
sS'873993'
p3010
F0.9024390243902439
sS'866542'
p3011
F0.04878048780487805
sS'649965'
p3012
F0.0
sS'677805'
p3013
F0.0
sS'836645'
p3014
F0.0
sS'836644'
p3015
F0.024390243902439025
sS'203651'
p3016
F0.975
sS'937395'
p3017
F0.023809523809523808
sS'293737'
p3018
F0.4358974358974359
sS'363066'
p3019
F0.0
sS'477612'
p3020
F0.0
sS'401508'
p3021
F0.04878048780487805
sS'632272'
p3022
F0.35
sS'962589'
p3023
F0.16666666666666666
sS'261380'
p3024
F0.0
sS'688698'
p3025
F0.1
sS'377487'
p3026
F0.10256410256410256
sS'535189'
p3027
F0.4358974358974359
sS'52193'
p3028
F0.046511627906976744
sS'198874'
p3029
F0.024390243902439025
sS'831078'
p3030
F0.0
sS'618880'
p3031
F0.15
sS'484621'
p3032
F0.05128205128205128
sS'227987'
p3033
F0.0
sS'422710'
p3034
F0.0
sS'52420'
p3035
F0.0
sS'46779'
p3036
F0.06976744186046512
sS'166991'
p3037
F0.046511627906976744
sS'253849'
p3038
F0.0
sS'873928'
p3039
F0.12195121951219512
sS'506225'
p3040
F0.02564102564102564
sS'838464'
p3041
F0.0
sS'204192'
p3042
F0.0
sS'176855'
p3043
F0.023809523809523808
sS'125576'
p3044
F0.13953488372093023
sS'411427'
p3045
F0.0
sS'629409'
p3046
F0.125
sS'418523'
p3047
F0.0
sS'14004'
p3048
F0.0
sS'855805'
p3049
F0.024390243902439025
sS'290991'
p3050
F0.05128205128205128
sS'199475'
p3051
F0.0
sS'649172'
p3052
F0.0
sS'660038'
p3053
F0.025
sS'480384'
p3054
F0.10256410256410256
sS'106005'
p3055
F0.0
sS'780318'
p3056
F0.0
sS'693484'
p3057
F0.075
sS'410087'
p3058
F0.024390243902439025
sS'9210'
p3059
F0.0
sS'221925'
p3060
F0.8974358974358975
sS'305122'
p3061
F0.07317073170731707
sS'221920'
p3062
F1.1538461538461537
sS'185696'
p3063
F0.30952380952380953
sS'287056'
p3064
F0.28205128205128205
sS'907564'
p3065
F0.24390243902439024
sS'893420'
p3066
F0.1951219512195122
sS'211606'
p3067
F0.025
sS'908758'
p3068
F0.04878048780487805
sS'237740'
p3069
F0.3488372093023256
sS'401912'
p3070
F0.0
sS'390970'
p3071
F0.02564102564102564
sS'963188'
p3072
F0.0
sS'167554'
p3073
F0.046511627906976744
sS'240561'
p3074
F0.0
sS'300031'
p3075
F0.024390243902439025
sS'362566'
p3076
F0.0
sS'41019'
p3077
F0.02564102564102564
sS'163658'
p3078
F11.348837209302326
sS'45024'
p3079
F0.0
sS'346089'
p3080
F0.075
sS'569362'
p3081
F0.3333333333333333
sS'78082'
p3082
F0.0
sS'551975'
p3083
F0.1282051282051282
sS'313278'
p3084
F0.07692307692307693
sS'526871'
p3085
F0.15384615384615385
sS'143824'
p3086
F0.0
sS'435340'
p3087
F0.0
sS'523531'
p3088
F0.02564102564102564
sS'667410'
p3089
F0.0
sS'78830'
p3090
F0.5
sS'168283'
p3091
F0.023255813953488372
sS'467976'
p3092
F0.0
sS'543560'
p3093
F0.0
sS'322697'
p3094
F0.21951219512195122
sS'264243'
p3095
F0.14634146341463414
sS'219409'
p3096
F0.0
sS'870146'
p3097
F0.024390243902439025
sS'295588'
p3098
F0.0
sS'269181'
p3099
F0.0
sS'809450'
p3100
F0.9534883720930233
sS'674128'
p3101
F0.0
sS'477033'
p3102
F0.1282051282051282
sS'37047'
p3103
F0.0
sS'202434'
p3104
F1.7317073170731707
sS'202744'
p3105
F0.4
sS'310802'
p3106
F0.025
sS'41652'
p3107
F0.05128205128205128
sS'179302'
p3108
F0.0
sS'414740'
p3109
F0.0
sS'826071'
p3110
F0.023809523809523808
sS'752512'
p3111
F0.0
sS'830528'
p3112
F0.0
sS'8294'
p3113
F0.0
sS'569298'
p3114
F0.075
sS'156215'
p3115
F0.5128205128205128
sS'371170'
p3116
F0.0
sS'643926'
p3117
F0.0
sS'658053'
p3118
F0.025
sS'637085'
p3119
F0.05
sS'905833'
p3120
F0.024390243902439025
sS'291061'
p3121
F0.1282051282051282
sS'517065'
p3122
F0.0
sS'307969'
p3123
F0.0
sS'59650'
p3124
F0.0
sS'729663'
p3125
F0.3
sS'314473'
p3126
F0.8205128205128205
sS'76665'
p3127
F0.0
sS'178361'
p3128
F0.30952380952380953
sS'27400'
p3129
F0.025
sS'734353'
p3130
F0.0
sS'495674'
p3131
F0.0
sS'176935'
p3132
F0.23809523809523808
sS'752206'
p3133
F0.0
sS'216378'
p3134
F0.0
sS'432556'
p3135
F0.02564102564102564
sS'884868'
p3136
F0.0
sS'108284'
p3137
F0.46153846153846156
sS'495691'
p3138
F0.6923076923076923
sS'179942'
p3139
F0.07142857142857142
sS'129786'
p3140
F0.047619047619047616
sS'156585'
p3141
F0.2564102564102564
sS'31273'
p3142
F0.0
sS'986177'
p3143
F0.11904761904761904
sS'187142'
p3144
F0.0
sS'306224'
p3145
F0.6
sS'271688'
p3146
F0.0
sS'964237'
p3147
F0.0
sS'237963'
p3148
F0.0
sS'692685'
p3149
F0.425
sS'209815'
p3150
F0.65
sS'237967'
p3151
F0.18604651162790697
sS'316740'
p3152
F0.05128205128205128
sS'313056'
p3153
F0.9743589743589743
sS'368716'
p3154
F0.0
sS'27532'
p3155
F0.0
sS'187786'
p3156
F0.0
sS'217829'
p3157
F0.1282051282051282
sS'466007'
p3158
F0.0
sS'156109'
p3159
F0.02564102564102564
sS'403390'
p3160
F0.0975609756097561
sS'193005'
p3161
F0.024390243902439025
sS'560183'
p3162
F0.0
sS'562487'
p3163
F0.0
sS'161180'
p3164
F0.0
sS'336941'
p3165
F0.0
sS'808077'
p3166
F0.046511627906976744
sS'231576'
p3167
F0.0
sS'18467'
p3168
F2.024390243902439
sS'950438'
p3169
F0.0
sS'887156'
p3170
F0.4146341463414634
sS'491997'
p3171
F0.0
sS'610887'
p3172
F0.0
sS'381784'
p3173
F0.02564102564102564
sS'385552'
p3174
F0.05128205128205128
sS'692535'
p3175
F0.0
sS'747630'
p3176
F0.0
sS'382074'
p3177
F0.0
sS'310595'
p3178
F0.0
sS'590244'
p3179
F0.024390243902439025
sS'1336'
p3180
F0.06976744186046512
sS'454627'
p3181
F0.02564102564102564
sS'216990'
p3182
F0.2
sS'375894'
p3183
F0.41025641025641024
sS'941797'
p3184
F0.07142857142857142
sS'44862'
p3185
F0.0
sS'971452'
p3186
F0.0
sS'87444'
p3187
F0.05128205128205128
sS'87445'
p3188
F0.1282051282051282
sS'829835'
p3189
F0.0
sS'710607'
p3190
F0.0
sS'267922'
p3191
F1.5853658536585367
sS'574977'
p3192
F0.0
sS'631800'
p3193
F0.0
sS'207338'
p3194
F0.275
sS'614413'
p3195
F0.0
sS'206206'
p3196
F0.0
sS'311626'
p3197
F0.0
sS'938199'
p3198
F0.0
sS'985416'
p3199
F0.09523809523809523
sS'34024'
p3200
F0.02564102564102564
sS'208690'
p3201
F0.0
sS'848866'
p3202
F0.0
sS'812434'
p3203
F0.0
sS'460945'
p3204
F0.20512820512820512
sS'91621'
p3205
F0.02564102564102564
sS'91627'
p3206
F0.0
sS'444668'
p3207
F0.23076923076923078
sS'287022'
p3208
F2.641025641025641
sS'287020'
p3209
F0.15384615384615385
sS'366279'
p3210
F0.0
sS'173184'
p3211
F0.09302325581395349
sS'835775'
p3212
F0.8536585365853658
sS'212529'
p3213
F0.225
sS'712267'
p3214
F0.0
sS'576017'
p3215
F0.0
sS'245504'
p3216
F0.0
sS'756449'
p3217
F0.0
sS'301413'
p3218
F0.0
sS'993164'
p3219
F0.9761904761904762
sS'817742'
p3220
F0.0
sS'439119'
p3221
F0.9487179487179487
sS'140025'
p3222
F0.024390243902439025
sS'185221'
p3223
F0.023809523809523808
sS'971854'
p3224
F0.0
sS'72168'
p3225
F0.04878048780487805
sS'73987'
p3226
F0.0
sS'119643'
p3227
F0.8974358974358975
sS'559490'
p3228
F0.24390243902439024
sS'944442'
p3229
F0.0
sS'92803'
p3230
F0.0
sS'375676'
p3231
F0.1794871794871795
sS'642458'
p3232
F0.275
sS'219401'
p3233
F0.0
sS'625624'
p3234
F0.0
sS'736508'
p3235
F0.0
sS'379982'
p3236
F0.0
sS'83098'
p3237
F0.0
sS'194915'
p3238
F0.0
sS'567296'
p3239
F0.2
sS'55377'
p3240
F0.0
sS'525938'
p3241
F0.0
sS'915504'
p3242
F0.0
sS'53066'
p3243
F0.23255813953488372
sS'56301'
p3244
F0.0
sS'411317'
p3245
F0.0
sS'177324'
p3246
F0.023809523809523808
sS'923096'
p3247
F0.3170731707317073
sS'181057'
p3248
F0.3333333333333333
sS'318161'
p3249
F0.4
sS'200845'
p3250
F0.1951219512195122
sS'366616'
p3251
F0.55
sS'334402'
p3252
F0.07317073170731707
sS'391080'
p3253
F0.07692307692307693
sS'258166'
p3254
F0.02564102564102564
sS'13768'
p3255
F0.6428571428571429
sS'100332'
p3256
F0.0
sS'639320'
p3257
F0.0
sS'84723'
p3258
F0.05
sS'382099'
p3259
F0.0
sS'629293'
p3260
F0.0
sS'82495'
p3261
F0.0
sS'180244'
p3262
F0.11904761904761904
sS'813583'
p3263
F0.023255813953488372
sS'93264'
p3264
F0.0
sS'807247'
p3265
F0.046511627906976744
sS'422855'
p3266
F0.2564102564102564
sS'303098'
p3267
F0.024390243902439025
sS'240861'
p3268
F1.627906976744186
sS'277946'
p3269
F0.15
sS'405142'
p3270
F0.0
sS'719749'
p3271
F0.125
sS'392523'
p3272
F0.02564102564102564
sS'528230'
p3273
F0.0
sS'783047'
p3274
F0.0
sS'366724'
p3275
F0.075
sS'581047'
p3276
F0.0
sS'318011'
p3277
F0.0
sS'311347'
p3278
F0.10256410256410256
sS'965484'
p3279
F0.38095238095238093
sS'139568'
p3280
F0.04878048780487805
sS'576768'
p3281
F0.024390243902439025
sS'25015'
p3282
F0.025
sS'373020'
p3283
F0.025
sS'185044'
p3284
F0.2857142857142857
sS'915602'
p3285
F0.0
sS'993343'
p3286
F0.6666666666666666
sS'753895'
p3287
F0.0
sS'114643'
p3288
F0.05128205128205128
sS'66873'
p3289
F0.024390243902439025
sS'300203'
p3290
F0.024390243902439025
sS'536539'
p3291
F0.0
sS'64885'
p3292
F0.024390243902439025
sS'224983'
p3293
F0.1282051282051282
sS'436802'
p3294
F0.02564102564102564
sS'281972'
p3295
F0.0
sS'413953'
p3296
F0.0
sS'200996'
p3297
F0.0
sS'404386'
p3298
F0.8780487804878049
sS'943751'
p3299
F0.023809523809523808
sS'618956'
p3300
F0.0
sS'57022'
p3301
F0.047619047619047616
sS'785575'
p3302
F0.0
sS'874324'
p3303
F0.2926829268292683
sS'64396'
p3304
F0.0
sS'874326'
p3305
F0.07317073170731707
sS'308824'
p3306
F0.45
sS'16448'
p3307
F0.0
sS'952947'
p3308
F0.047619047619047616
sS'952714'
p3309
F0.023809523809523808
sS'4460'
p3310
F0.2857142857142857
sS'401514'
p3311
F0.0
sS'762062'
p3312
F0.07692307692307693
sS'533445'
p3313
F0.0
sS'230675'
p3314
F0.0
sS'456768'
p3315
F0.0
sS'139361'
p3316
F0.12195121951219512
sS'9064'
p3317
F0.07142857142857142
sS'857302'
p3318
F0.0
sS'806444'
p3319
F0.0
sS'116957'
p3320
F0.0
sS'903736'
p3321
F0.024390243902439025
sS'895729'
p3322
F0.024390243902439025
sS'996435'
p3323
F0.07142857142857142
sS'773339'
p3324
F0.0
sS'908739'
p3325
F0.14634146341463414
sS'807668'
p3326
F0.046511627906976744
sS'230517'
p3327
F0.20512820512820512
sS'734157'
p3328
F0.0
sS'429717'
p3329
F0.0
sS'21486'
p3330
F0.12195121951219512
sS'57440'
p3331
F0.09523809523809523
sS'386403'
p3332
F0.3076923076923077
sS'390363'
p3333
F0.0
sS'820326'
p3334
F0.0
sS'827443'
p3335
F0.09523809523809523
sS'362116'
p3336
F0.025
sS'825476'
p3337
F0.07142857142857142
sS'247107'
p3338
F0.0
sS'704661'
p3339
F0.0
sS'510370'
p3340
F0.1282051282051282
sS'457281'
p3341
F0.02564102564102564
sS'269391'
p3342
F0.5365853658536586
sS'46901'
p3343
F0.4186046511627907
sS'649182'
p3344
F0.0
sS'649180'
p3345
F0.05
sS'624337'
p3346
F0.1
sS'805681'
p3347
F0.16279069767441862
sS'236357'
p3348
F0.7209302325581395
sS'324378'
p3349
F0.04878048780487805
sS'80860'
p3350
F0.025
sS'149173'
p3351
F0.125
sS'176033'
p3352
F0.07142857142857142
sS'605384'
p3353
F0.17073170731707318
sS'666834'
p3354
F0.05
sS'70059'
p3355
F0.0
sS'12173'
p3356
F0.3333333333333333
sS'199268'
p3357
F0.0
sS'82278'
p3358
F0.025
sS'387552'
p3359
F0.0
sS'994214'
p3360
F0.19047619047619047
sS'760193'
p3361
F0.4358974358974359
sS'163452'
p3362
F0.06976744186046512
sS'726925'
p3363
F0.025
sS'123912'
p3364
F0.0
sS'761650'
p3365
F0.02564102564102564
sS'719848'
p3366
F0.0
sS'46837'
p3367
F0.023255813953488372
sS'143833'
p3368
F0.0
sS'362596'
p3369
F0.0
sS'95635'
p3370
F0.275
sS'402882'
p3371
F0.04878048780487805
sS'342323'
p3372
F0.15
sS'325796'
p3373
F0.024390243902439025
sS'294776'
p3374
F0.0
sS'911866'
p3375
F0.12195121951219512
sS'515337'
p3376
F0.1794871794871795
sS'955342'
p3377
F0.047619047619047616
sS'436115'
p3378
F0.1282051282051282
sS'701480'
p3379
F0.55
sS'81175'
p3380
F0.075
sS'7250'
p3381
F0.0
sS'393777'
p3382
F0.15384615384615385
sS'297950'
p3383
F0.0
sS'923727'
p3384
F0.04878048780487805
sS'846418'
p3385
F0.0
sS'304856'
p3386
F0.0
sS'36692'
p3387
F0.02564102564102564
sS'195341'
p3388
F0.2682926829268293
sS'62836'
p3389
F0.0
sS'9031'
p3390
F0.0
sS'619323'
p3391
F0.0
sS'265674'
p3392
F0.0
sS'41460'
p3393
F0.0
sS'608522'
p3394
F0.024390243902439025
sS'36059'
p3395
F0.05128205128205128
sS'156362'
p3396
F1.564102564102564
sS'41640'
p3397
F0.0
sS'955574'
p3398
F0.0
sS'849991'
p3399
F0.024390243902439025
sS'999942'
p3400
F0.09523809523809523
sS'931182'
p3401
F0.6829268292682927
sS'907604'
p3402
F0.0
sS'752505'
p3403
F0.075
sS'365741'
p3404
F0.05
sS'448071'
p3405
F0.05128205128205128
sS'570230'
p3406
F0.0
sS'295552'
p3407
F0.0
sS'504894'
p3408
F0.05128205128205128
sS'20353'
p3409
F0.0
sS'369754'
p3410
F0.0
sS'111882'
p3411
F0.05128205128205128
sS'81'
p3412
F0.0
sS'272654'
p3413
F0.05
sS'236978'
p3414
F0.0
sS'786739'
p3415
F0.11904761904761904
sS'610253'
p3416
F0.0
sS'63234'
p3417
F0.3333333333333333
sS'572850'
p3418
F0.1282051282051282
sS'908740'
p3419
F0.0
sS'155911'
p3420
F0.0
sS'86577'
p3421
F0.02564102564102564
sS'913820'
p3422
F0.0
sS'143637'
p3423
F0.0
sS'183306'
p3424
F0.07142857142857142
sS'571326'
p3425
F0.0
sS'211165'
p3426
F1.3
sS'698205'
p3427
F0.25
sS'356407'
p3428
F0.15
sS'8800'
p3429
F0.0
sS'827641'
p3430
F0.0
sS'8802'
p3431
F0.0
sS'172930'
p3432
F0.16279069767441862
sS'718527'
p3433
F0.1
sS'945229'
p3434
F0.16666666666666666
sS'175216'
p3435
F0.023809523809523808
sS'71477'
p3436
F0.0
sS'663661'
p3437
F0.175
sS'504968'
p3438
F0.02564102564102564
sS'939053'
p3439
F0.09523809523809523
sS'178132'
p3440
F0.11904761904761904
sS'212193'
p3441
F1.425
sS'58163'
p3442
F0.0
sS'567556'
p3443
F0.15
sS'746681'
p3444
F0.0
sS'815273'
p3445
F0.7857142857142857
sS'364762'
p3446
F0.0
sS'123773'
p3447
F0.046511627906976744
sS'403129'
p3448
F0.0975609756097561
sS'119258'
p3449
F0.41025641025641024
sS'954759'
p3450
F0.047619047619047616
sS'316733'
p3451
F0.1282051282051282
sS'413224'
p3452
F0.0
sS'677368'
p3453
F0.175
sS'206325'
p3454
F0.25
sS'95666'
p3455
F0.0
sS'822766'
p3456
F0.0
sS'493863'
p3457
F0.1282051282051282
sS'114907'
p3458
F0.0
sS'104988'
p3459
F0.1282051282051282
sS'197024'
p3460
F0.5853658536585366
sS'174077'
p3461
F0.37209302325581395
sS'506109'
p3462
F0.0
sS'226628'
p3463
F0.15384615384615385
sS'72009'
p3464
F0.0
sS'109963'
p3465
F0.3076923076923077
sS'510490'
p3466
F0.358974358974359
sS'109964'
p3467
F0.05128205128205128
sS'47425'
p3468
F0.11627906976744186
sS'169092'
p3469
F0.023255813953488372
sS'136898'
p3470
F0.0
sS'560353'
p3471
F0.07317073170731707
sS'94863'
p3472
F0.0
sS'637413'
p3473
F0.75
sS'330250'
p3474
F0.0
sS'192295'
p3475
F1.0731707317073171
sS'758594'
p3476
F0.07692307692307693
sS'825526'
p3477
F0.0
sS'319572'
p3478
F0.0975609756097561
sS'454'
p3479
F0.0
sS'590253'
p3480
F0.0
sS'565131'
p3481
F0.0
sS'402723'
p3482
F0.023809523809523808
sS'900859'
p3483
F0.0
sS'823788'
p3484
F0.0
sS'279010'
p3485
F2.025
sS'511547'
p3486
F0.0
sS'197128'
p3487
F0.04878048780487805
sS'382663'
p3488
F0.38461538461538464
sS'842595'
p3489
F0.0
sS'924371'
p3490
F0.0
sS'302844'
p3491
F0.024390243902439025
sS'335090'
p3492
F0.07317073170731707
sS'710618'
p3493
F0.025
sS'92450'
p3494
F0.0
sS'956653'
p3495
F0.14285714285714285
sS'207181'
p3496
F0.175
sS'955636'
p3497
F0.023809523809523808
sS'617991'
p3498
F0.0
sS'730365'
p3499
F0.375
sS'156003'
p3500
F0.3076923076923077
sS'95723'
p3501
F0.0
sS'34581'
p3502
F0.0
sS'84343'
p3503
F0.05
sS'136273'
p3504
F0.047619047619047616
sS'420179'
p3505
F0.02564102564102564
sS'503755'
p3506
F0.0
sS'874904'
p3507
F0.975609756097561
sS'168978'
p3508
F0.046511627906976744
sS'813774'
p3509
F0.0
sS'420176'
p3510
F0.07692307692307693
sS'819700'
p3511
F0.0
sS'858999'
p3512
F0.6097560975609756
sS'577790'
p3513
F0.024390243902439025
sS'109632'
p3514
F0.1
sS'213050'
p3515
F0.05
sS'401803'
p3516
F0.04878048780487805
sS'216838'
p3517
F0.4358974358974359
sS'216839'
p3518
F0.1794871794871795
sS'476209'
p3519
F0.0
sS'187355'
p3520
F0.0
sS'702055'
p3521
F0.575
sS'199860'
p3522
F0.0
sS'433983'
p3523
F0.02564102564102564
sS'747796'
p3524
F0.025
sS'165154'
p3525
F0.16279069767441862
sS'327014'
p3526
F1.3170731707317074
sS'109388'
p3527
F0.0
sS'564871'
p3528
F0.0
sS'110602'
p3529
F0.07692307692307693
sS'977665'
p3530
F0.16666666666666666
sS'225886'
p3531
F0.0
sS'938077'
p3532
F0.14285714285714285
sS'785459'
p3533
F0.023255813953488372
sS'722077'
p3534
F0.05
sS'183691'
p3535
F0.0
sS'19083'
p3536
F0.1951219512195122
sS'67183'
p3537
F0.17073170731707318
sS'526322'
p3538
F0.02564102564102564
sS'318625'
p3539
F0.1951219512195122
sS'318622'
p3540
F0.024390243902439025
sS'505237'
p3541
F0.0
sS'261705'
p3542
F0.0
sS'977285'
p3543
F0.0
sS'301135'
p3544
F0.0
sS'877442'
p3545
F0.04878048780487805
sS'318159'
p3546
F0.04878048780487805
sS'891823'
p3547
F0.0
sS'267425'
p3548
F0.0
sS'760492'
p3549
F0.10256410256410256
sS'729477'
p3550
F0.0
sS'402382'
p3551
F0.0
sS'704908'
p3552
F0.05
sS'218893'
p3553
F0.05128205128205128
sS'91516'
p3554
F0.5641025641025641
sS'398960'
p3555
F0.0
sS'696315'
p3556
F0.0
sS'369477'
p3557
F0.0
sS'189133'
p3558
F0.023809523809523808
sS'309819'
p3559
F0.2
sS'681278'
p3560
F0.425
sS'100343'
p3561
F0.0
sS'829358'
p3562
F0.0
sS'258171'
p3563
F0.0
sS'861932'
p3564
F0.07317073170731707
sS'574462'
p3565
F0.2564102564102564
sS'405770'
p3566
F0.6829268292682927
sS'598269'
p3567
F0.0
sS'296141'
p3568
F0.07692307692307693
sS'92675'
p3569
F0.07692307692307693
sS'149883'
p3570
F0.0
sS'194837'
p3571
F0.17073170731707318
sS'343593'
p3572
F0.04878048780487805
sS'73532'
p3573
F0.0
sS'392959'
p3574
F0.02564102564102564
sS'468655'
p3575
F0.02564102564102564
sS'240702'
p3576
F0.06976744186046512
sS'859334'
p3577
F0.0
sS'213009'
p3578
F0.0
sS'83816'
p3579
F0.05
sS'468074'
p3580
F0.6153846153846154
sS'372500'
p3581
F0.10256410256410256
sS'277937'
p3582
F0.3
sS'215893'
p3583
F0.0
sS'501135'
p3584
F0.05128205128205128
sS'328445'
p3585
F0.07317073170731707
sS'975472'
p3586
F0.16666666666666666
sS'121985'
p3587
F0.0
sS'802751'
p3588
F0.0
sS'521803'
p3589
F0.05128205128205128
sS'401462'
p3590
F0.07317073170731707
sS'304038'
p3591
F0.12195121951219512
sS'759346'
p3592
F0.0
sS'697578'
p3593
F0.0
sS'409289'
p3594
F0.024390243902439025
sS'864289'
p3595
F0.024390243902439025
sS'760857'
p3596
F0.0
sS'128818'
p3597
F0.07142857142857142
sS'402272'
p3598
F0.0975609756097561
sS'759180'
p3599
F0.05128205128205128
sS'900520'
p3600
F0.43902439024390244
sS'201296'
p3601
F0.04878048780487805
sS'623725'
p3602
F0.125
sS'192198'
p3603
F0.07317073170731707
sS'6135'
p3604
F0.023809523809523808
sS'973291'
p3605
F0.0
sS'261496'
p3606
F0.0
sS'358389'
p3607
F0.0
sS'454843'
p3608
F0.7692307692307693
sS'923593'
p3609
F0.21951219512195122
sS'680193'
p3610
F0.225
sS'51880'
p3611
F0.23255813953488372
sS'732275'
p3612
F0.175
sS'203038'
p3613
F0.425
sS'403596'
p3614
F0.0
sS'488331'
p3615
F0.0
sS'249296'
p3616
F0.0
sS'344863'
p3617
F0.025
sS'215096'
p3618
F2.175
sS'135725'
p3619
F0.047619047619047616
sS'195572'
p3620
F0.04878048780487805
sS'650058'
p3621
F0.025
sS'986437'
p3622
F0.0
sS'998732'
p3623
F0.023809523809523808
sS'60110'
p3624
F0.16666666666666666
sS'737641'
p3625
F0.0
sS'880176'
p3626
F0.0
sS'448164'
p3627
F0.02564102564102564
sS'300304'
p3628
F0.07317073170731707
sS'199678'
p3629
F0.0
sS'943558'
p3630
F0.11904761904761904
sS'827644'
p3631
F0.0
sS'545374'
p3632
F0.0
sS'943555'
p3633
F0.07142857142857142
sS'467704'
p3634
F0.02564102564102564
sS'657528'
p3635
F0.825
sS'877992'
p3636
F0.024390243902439025
sS'429494'
p3637
F0.05128205128205128
sS'468270'
p3638
F0.0
sS'63952'
p3639
F0.21428571428571427
sS'997626'
p3640
F0.0
sS'683089'
p3641
F0.0
sS'307435'
p3642
F0.15
sS'824126'
p3643
F0.0
sS'293406'
p3644
F0.0
sS'805236'
p3645
F0.023255813953488372
sS'629422'
p3646
F0.0
sS'271990'
p3647
F0.21951219512195122
sS'90335'
p3648
F0.0
sS'234186'
p3649
F0.0
sS'218222'
p3650
F0.5641025641025641
sS'3405'
p3651
F0.38095238095238093
sS'247116'
p3652
F0.0
sS'510362'
p3653
F0.0
sS'775637'
p3654
F0.047619047619047616
sS'489966'
p3655
F0.23076923076923078
sS'221905'
p3656
F0.3076923076923077
sS'390556'
p3657
F0.0
sS'501265'
p3658
F0.0
sS'209057'
p3659
F0.05
sS'239029'
p3660
F0.06976744186046512
sS'985220'
p3661
F0.0
sS'38546'
p3662
F0.0
sS'340586'
p3663
F0.125
sS'819039'
p3664
F0.0
sS'719641'
p3665
F0.1
sS'481039'
p3666
F0.0
sS'593736'
p3667
F0.0
sS'457796'
p3668
F0.0
sS'351808'
p3669
F0.525
sS'203630'
p3670
F0.675
sS'203631'
p3671
F0.375
sS'438841'
p3672
F0.07692307692307693
sS'460442'
p3673
F0.07692307692307693
sS'345518'
p3674
F0.025
sS'235540'
p3675
F0.32558139534883723
sS'141417'
p3676
F0.024390243902439025
sS'885635'
p3677
F0.024390243902439025
sS'647967'
p3678
F0.225
sS'708626'
p3679
F0.025
sS'85635'
p3680
F0.07692307692307693
sS'159862'
p3681
F0.07692307692307693
sS'944630'
p3682
F0.0
sS'512140'
p3683
F0.05128205128205128
sS'837954'
p3684
F0.04878048780487805
sS'823394'
p3685
F0.023809523809523808
sS'985917'
p3686
F0.0
sS'445423'
p3687
F0.02564102564102564
sS'95424'
p3688
F0.07692307692307693
sS'400944'
p3689
F0.0
sS'699904'
p3690
F0.025
sS'496451'
p3691
F0.23076923076923078
sS'475374'
p3692
F0.05128205128205128
sS'475375'
p3693
F0.15384615384615385
sS'113680'
p3694
F0.1282051282051282
sS'570348'
p3695
F0.05
sS'7245'
p3696
F0.40476190476190477
sS'28056'
p3697
F0.0
sS'7240'
p3698
F1.0238095238095237
sS'78332'
p3699
F0.0
sS'38528'
p3700
F0.0
sS'83815'
p3701
F0.075
sS'83814'
p3702
F0.05
sS'113204'
p3703
F0.0
sS'561645'
p3704
F0.024390243902439025
sS'294217'
p3705
F0.0
sS'478691'
p3706
F0.15384615384615385
sS'48187'
p3707
F0.0
sS'115688'
p3708
F0.38461538461538464
sS'472757'
p3709
F0.38461538461538464
sS'604117'
p3710
F0.0
sS'176864'
p3711
F0.047619047619047616
sS'27420'
p3712
F0.0
sS'125221'
p3713
F0.023255813953488372
sS'190132'
p3714
F0.23255813953488372
sS'491358'
p3715
F0.0
sS'156279'
p3716
F0.0
sS'3799'
p3717
F0.0
sS'882857'
p3718
F0.04878048780487805
sS'324774'
p3719
F0.3170731707317073
sS'812871'
p3720
F0.47619047619047616
sS'727217'
p3721
F0.0
sS'864256'
p3722
F0.1951219512195122
sS'427742'
p3723
F1.1282051282051282
sS'197589'
p3724
F0.17073170731707318
sS'211794'
p3725
F0.025
sS'412096'
p3726
F0.0
sS'534635'
p3727
F0.2564102564102564
sS'147323'
p3728
F0.075
sS'147322'
p3729
F0.1
sS'136873'
p3730
F0.19047619047619047
sS'568236'
p3731
F0.025
sS'520493'
p3732
F0.0
sS'164545'
p3733
F0.0
sS'444804'
p3734
F0.025
sS'736999'
p3735
F0.225
sS'411684'
p3736
F0.0
sS'216686'
p3737
F0.0
sS'543658'
p3738
F0.0
sS'728423'
p3739
F0.425
sS'89982'
p3740
F0.02564102564102564
sS'311889'
p3741
F0.075
sS'803505'
p3742
F0.4186046511627907
sS'607005'
p3743
F0.0
sS'71738'
p3744
F1.0975609756097562
sS'569013'
p3745
F0.15
sS'302273'
p3746
F1.1219512195121952
sS'82437'
p3747
F0.075
sS'962681'
p3748
F0.0
sS'342524'
p3749
F0.05
sS'302278'
p3750
F0.6341463414634146
sS'168404'
p3751
F1.372093023255814
sS'985409'
p3752
F0.16666666666666666
sS'548071'
p3753
F0.0
sS'322258'
p3754
F0.0
sS'6175'
p3755
F0.0
sS'900872'
p3756
F0.0
sS'773264'
p3757
F0.0
sS'807575'
p3758
F0.23255813953488372
sS'191875'
p3759
F0.14634146341463414
sS'322257'
p3760
F0.024390243902439025
sS'357889'
p3761
F0.0
sS'496507'
p3762
F0.05128205128205128
sS'607710'
p3763
F0.0
sS'933550'
p3764
F0.023809523809523808
sS'569126'
p3765
F0.075
sS'136869'
p3766
F0.0
sS'172819'
p3767
F0.0
sS'529550'
p3768
F0.0
sS'8107'
p3769
F0.07142857142857142
sS'900593'
p3770
F0.0
sS'347003'
p3771
F0.025
sS'514256'
p3772
F0.1282051282051282
sS'147679'
p3773
F0.0
sS'131727'
p3774
F0.023809523809523808
sS'370751'
p3775
F0.0
sS'822106'
p3776
F0.023809523809523808
sS'699320'
p3777
F0.0
sS'946337'
p3778
F0.0
sS'631861'
p3779
F0.025
sS'720509'
p3780
F0.0
sS'631864'
p3781
F0.025
sS'481929'
p3782
F0.0
sS'700908'
p3783
F0.0
sS'344268'
p3784
F0.3902439024390244
sS'231404'
p3785
F0.15384615384615385
sS'518021'
p3786
F0.0
sS'174424'
p3787
F0.8571428571428571
sS'120838'
p3788
F0.02564102564102564
sS'375180'
p3789
F0.15384615384615385
sS'72292'
p3790
F0.12195121951219512
sS'643056'
p3791
F0.2
sS'97955'
p3792
F0.0
sS'544371'
p3793
F0.0
sS'785515'
p3794
F0.0
sS'28308'
p3795
F0.375
sS'761357'
p3796
F0.0
sS'302300'
p3797
F0.0
sS'731194'
p3798
F0.0
sS'416502'
p3799
F0.1951219512195122
sS'357970'
p3800
F0.6
sS'239725'
p3801
F0.23255813953488372
sS'444648'
p3802
F1.3333333333333333
sS'187690'
p3803
F0.0
sS'834020'
p3804
F0.024390243902439025
sS'288066'
p3805
F4.487179487179487
sS'118143'
p3806
F0.0
sS'752463'
p3807
F0.0
sS'143204'
p3808
F0.0
sS'165238'
p3809
F0.0
sS'794942'
p3810
F0.0
sS'912766'
p3811
F0.0
sS'318707'
p3812
F0.04878048780487805
sS'456400'
p3813
F0.15384615384615385
sS'229794'
p3814
F0.02564102564102564
sS'418156'
p3815
F1.225
sS'136044'
p3816
F0.0
sS'889538'
p3817
F0.0
sS'13816'
p3818
F0.2682926829268293
sS'639344'
p3819
F0.025
sS'987143'
p3820
F0.21428571428571427
sS'642938'
p3821
F0.025
sS'681964'
p3822
F0.0
sS'857687'
p3823
F0.024390243902439025
sS'192373'
p3824
F0.0
sS'225071'
p3825
F0.02564102564102564
sS'308336'
p3826
F0.0
sS'733731'
p3827
F0.0
sS'165141'
p3828
F0.023255813953488372
sS'573470'
p3829
F1.794871794871795
sS'266721'
p3830
F3.2439024390243905
sS'789777'
p3831
F0.0
sS'88900'
p3832
F0.05128205128205128
sS'735693'
p3833
F0.0
sS'212306'
p3834
F0.0
sS'714436'
p3835
F0.0
sS'91268'
p3836
F0.02564102564102564
sS'844046'
p3837
F0.07317073170731707
sS'78222'
p3838
F0.15
sS'221353'
p3839
F0.0
sS'750373'
p3840
F0.175
sS'500980'
p3841
F0.02564102564102564
sS'794832'
p3842
F0.5238095238095238
sS'953036'
p3843
F0.11904761904761904
sS'100288'
p3844
F0.0
sS'286775'
p3845
F0.05128205128205128
sS'460709'
p3846
F0.02564102564102564
sS'816086'
p3847
F0.0
sS'999298'
p3848
F0.5714285714285714
sS'174935'
p3849
F0.047619047619047616
sS'309867'
p3850
F0.05
sS'239072'
p3851
F0.13953488372093023
sS'890753'
p3852
F0.0
sS'612272'
p3853
F0.0
sS'630800'
p3854
F0.475
sS'422872'
p3855
F0.0
sS'991112'
p3856
F0.11904761904761904
sS'95631'
p3857
F0.046511627906976744
sS'738901'
p3858
F0.05
sS'642658'
p3859
F0.15
sS'489026'
p3860
F0.02564102564102564
sS'181594'
p3861
F0.30952380952380953
sS'578302'
p3862
F0.0
sS'427640'
p3863
F0.05128205128205128
sS'276526'
p3864
F0.025
sS'253181'
p3865
F0.0
sS'573583'
p3866
F0.0
sS'82474'
p3867
F0.05
sS'50652'
p3868
F0.0
sS'833469'
p3869
F0.0975609756097561
sS'150144'
p3870
F0.0
sS'389789'
p3871
F0.7435897435897436
sS'389788'
p3872
F0.10256410256410256
sS'223199'
p3873
F0.0
sS'305005'
p3874
F0.475
sS'404837'
p3875
F0.0
sS'266074'
p3876
F0.024390243902439025
sS'878671'
p3877
F0.0
sS'833658'
p3878
F0.14634146341463414
sS'22079'
p3879
F1.2195121951219512
sS'114662'
p3880
F0.0
sS'649505'
p3881
F0.0
sS'92854'
p3882
F0.07692307692307693
sS'286311'
p3883
F1.6923076923076923
sS'117460'
p3884
F0.1282051282051282
sS'815866'
p3885
F0.0
sS'13637'
p3886
F0.023809523809523808
sS'706998'
p3887
F0.0
sS'807195'
p3888
F0.0
sS'563310'
p3889
F0.0
sS'485125'
p3890
F0.41025641025641024
sS'209465'
p3891
F0.175
sS'46108'
p3892
F0.023255813953488372
sS'486583'
p3893
F0.0
sS'911860'
p3894
F0.04878048780487805
sS'165366'
p3895
F0.023255813953488372
sS'51678'
p3896
F0.0
sS'27163'
p3897
F0.0
sS'835085'
p3898
F0.04878048780487805
sS'839073'
p3899
F0.024390243902439025
sS'454706'
p3900
F0.0
sS'443860'
p3901
F0.0
sS'448151'
p3902
F0.3333333333333333
sS'166819'
p3903
F0.09302325581395349
sS'454327'
p3904
F0.0
sS'104670'
p3905
F0.1
sS'778465'
p3906
F0.0
sS'918978'
p3907
F0.07317073170731707
sS'454321'
p3908
F0.0
sS'484614'
p3909
F0.23076923076923078
sS'51872'
p3910
F0.11627906976744186
sS'987795'
p3911
F0.023809523809523808
sS'993901'
p3912
F0.0
sS'617214'
p3913
F0.024390243902439025
sS'41808'
p3914
F0.0
sS'173440'
p3915
F0.023255813953488372
sS'377694'
p3916
F0.02564102564102564
sS'32028'
p3917
F0.0
sS'565805'
p3918
F0.1
sS'349565'
p3919
F0.15
sS'80231'
p3920
F0.0
sS'259039'
p3921
F0.0
sS'248615'
p3922
F0.0
sS'910019'
p3923
F0.24390243902439024
sS'598460'
p3924
F0.0
sS'82851'
p3925
F0.0
sS'116797'
p3926
F0.02564102564102564
sS'305795'
p3927
F0.0
sS'140314'
p3928
F0.0
sS'49200'
p3929
F0.046511627906976744
sS'221912'
p3930
F0.1282051282051282
sS'78829'
p3931
F0.4
sS'362918'
p3932
F0.475
sS'124584'
p3933
F0.06976744186046512
sS'87223'
p3934
F0.0
sS'87224'
p3935
F0.0
sS'52128'
p3936
F0.0
sS'343325'
p3937
F0.0
sS'143976'
p3938
F0.0
sS'596302'
p3939
F0.0975609756097561
sS'596304'
p3940
F0.04878048780487805
sS'454521'
p3941
F0.02564102564102564
sS'422298'
p3942
F0.0
sS'899030'
p3943
F0.0
sS'185692'
p3944
F0.0
sS'246131'
p3945
F0.0
sS'339870'
p3946
F0.04878048780487805
sS'353277'
p3947
F0.0
sS'820716'
p3948
F0.35714285714285715
sS'392766'
p3949
F0.717948717948718
sS'97236'
p3950
F0.275
sS'64914'
p3951
F0.5
sS'597098'
p3952
F0.04878048780487805
sS'90043'
p3953
F0.02564102564102564
sS'488576'
p3954
F0.0
sS'12159'
p3955
F0.14285714285714285
sS'820545'
p3956
F0.023809523809523808
sS'772806'
p3957
F0.0
sS'203999'
p3958
F0.0
sS'328789'
p3959
F0.12195121951219512
sS'805909'
p3960
F0.0
sS'647974'
p3961
F0.05
sS'387060'
p3962
F0.05128205128205128
sS'950858'
p3963
F0.047619047619047616
sS'85622'
p3964
F0.10256410256410256
sS'236393'
p3965
F0.023255813953488372
sS'18469'
p3966
F0.17073170731707318
sS'295155'
p3967
F0.0
sS'48197'
p3968
F0.3023255813953488
sS'736505'
p3969
F0.0
sS'46818'
p3970
F0.046511627906976744
sS'9319'
p3971
F0.0
sS'730116'
p3972
F0.0
sS'93405'
p3973
F0.05128205128205128
sS'455493'
p3974
F0.0
sS'97030'
p3975
F0.025
sS'143815'
p3976
F0.0
sS'40990'
p3977
F0.46153846153846156
sS'445294'
p3978
F0.02564102564102564
sS'202971'
p3979
F0.0
sS'765904'
p3980
F0.0
sS'60634'
p3981
F0.0
sS'690652'
p3982
F0.2
sS'120934'
p3983
F0.05128205128205128
sS'326954'
p3984
F0.024390243902439025
sS'321685'
p3985
F0.04878048780487805
sS'794440'
p3986
F0.14285714285714285
sS'371692'
p3987
F0.05128205128205128
sS'668152'
p3988
F0.0
sS'365839'
p3989
F0.025
sS'203192'
p3990
F0.0
sS'210301'
p3991
F0.0
sS'84041'
p3992
F0.07692307692307693
sS'627016'
p3993
F0.175
sS'891664'
p3994
F0.024390243902439025
sS'920636'
p3995
F0.5853658536585366
sS'291015'
p3996
F0.10256410256410256
sS'59607'
p3997
F0.07142857142857142
sS'176957'
p3998
F0.18604651162790697
sS'604103'
p3999
F0.0
sS'670244'
p4000
F0.0
sS'569242'
p4001
F0.0
sS'419973'
p4002
F0.07692307692307693
sS'644639'
p4003
F0.0
sS'659966'
p4004
F0.075
sS'611372'
p4005
F0.0
sS'122571'
p4006
F0.0
sS'716928'
p4007
F0.0
sS'306158'
p4008
F0.05
sS'830757'
p4009
F0.2926829268292683
sS'870628'
p4010
F0.12195121951219512
sS'156242'
p4011
F0.6666666666666666
sS'850376'
p4012
F0.0
sS'63213'
p4013
F0.0
sS'824687'
p4014
F0.0
sS'1984'
p4015
F0.023255813953488372
sS'625389'
p4016
F0.0
sS'705086'
p4017
F0.05
sS'832716'
p4018
F0.07317073170731707
sS'664774'
p4019
F0.0
sS'93869'
p4020
F0.07692307692307693
sS'479777'
p4021
F0.0
sS'429514'
p4022
F0.07692307692307693
sS'400530'
p4023
F0.225
sS'864263'
p4024
F0.0
sS'626479'
p4025
F0.025
sS'163357'
p4026
F0.813953488372093
sS'102702'
p4027
F0.05
sS'450016'
p4028
F0.05128205128205128
sS'18916'
p4029
F0.024390243902439025
sS'202807'
p4030
F0.024390243902439025
sS'341240'
p4031
F0.0
sS'563893'
p4032
F0.05
sS'226790'
p4033
F0.05128205128205128
sS'996185'
p4034
F0.0
sS'381207'
p4035
F0.46153846153846156
sS'315845'
p4036
F0.10256410256410256
sS'68966'
p4037
F0.14634146341463414
sS'231520'
p4038
F0.0
sS'233635'
p4039
F0.075
sS'890569'
p4040
F0.14634146341463414
sS'68962'
p4041
F0.3170731707317073
sS'692651'
p4042
F0.025
sS'54365'
p4043
F0.5
sS'407150'
p4044
F0.0975609756097561
sS'710743'
p4045
F0.0
sS'14703'
p4046
F0.0
sS'17817'
p4047
F0.14634146341463414
sS'59115'
p4048
F0.0
sS'3170'
p4049
F0.046511627906976744
sS'39434'
p4050
F0.0
sS'93340'
p4051
F0.0
sS'932801'
p4052
F0.0
sS'226640'
p4053
F0.38461538461538464
sS'938474'
p4054
F1.2857142857142858
sS'368262'
p4055
F0.575
sS'220958'
p4056
F0.20512820512820512
sS'659438'
p4057
F0.1
sS'836879'
p4058
F0.04878048780487805
sS'723269'
p4059
F0.1
sS'938478'
p4060
F0.38095238095238093
sS'367245'
p4061
F0.025
sS'893407'
p4062
F0.5365853658536586
sS'567426'
p4063
F0.0
sS'156640'
p4064
F0.02564102564102564
sS'977954'
p4065
F0.09523809523809523
sS'252607'
p4066
F0.0
sS'45902'
p4067
F0.13953488372093023
sS'144409'
p4068
F0.07317073170731707
sS'791742'
p4069
F0.0
sS'114324'
p4070
F0.0
sS'548072'
p4071
F0.0
sS'782525'
p4072
F0.07142857142857142
sS'334215'
p4073
F0.04878048780487805
sS'91787'
p4074
F0.20512820512820512
sS'126617'
p4075
F0.0
sS'194635'
p4076
F0.07317073170731707
sS'402708'
p4077
F0.0
sS'870376'
p4078
F0.17073170731707318
sS'474773'
p4079
F0.0
sS'961778'
p4080
F0.0
sS'659573'
p4081
F0.0
sS'628380'
p4082
F0.0
sS'646377'
p4083
F0.0
sS'28370'
p4084
F0.075
sS'129226'
p4085
F0.0
sS'648191'
p4086
F0.075
sS'14415'
p4087
F0.09523809523809523
sS'650706'
p4088
F0.025
sS'91309'
p4089
F0.0
sS'212228'
p4090
F0.023809523809523808
sS'819243'
p4091
F0.0
sS'224798'
p4092
F0.07692307692307693
sS'302865'
p4093
F0.04878048780487805
sS'131933'
p4094
F0.023809523809523808
sS'610294'
p4095
F0.0
sS'724388'
p4096
F0.0
sS'529300'
p4097
F0.0
sS'288071'
p4098
F0.02564102564102564
sS'183504'
p4099
F0.07142857142857142
sS'955650'
p4100
F0.0
sS'590306'
p4101
F0.0
sS'730298'
p4102
F0.025
sS'791596'
p4103
F0.0
sS'574357'
p4104
F0.10256410256410256
sS'812372'
p4105
F0.16279069767441862
sS'496855'
p4106
F0.0
sS'183728'
p4107
F0.37209302325581395
sS'486116'
p4108
F0.1794871794871795
sS'45497'
p4109
F0.075
sS'174326'
p4110
F0.0
sS'434774'
p4111
F0.05128205128205128
sS'950914'
p4112
F0.0
sS'662155'
p4113
F0.0
sS'497171'
p4114
F0.1282051282051282
sS'648817'
p4115
F0.525
sS'377822'
p4116
F0.0
sS'180181'
p4117
F0.023809523809523808
sS'924757'
p4118
F0.0
sS'417771'
p4119
F0.0
sS'335342'
p4120
F0.0
sS'812572'
p4121
F0.21428571428571427
sS'988065'
p4122
F0.0
sS'103725'
p4123
F0.1
sS'266867'
p4124
F0.0975609756097561
sS'266717'
p4125
F0.21951219512195122
sS'174323'
p4126
F0.0
sS'206906'
p4127
F0.75
sS'221366'
p4128
F0.0
sS'762204'
p4129
F0.02564102564102564
s.